(lp0
(dp1
(I4
I8
tp2
cnumpy.core.multiarray
scalar
p3
(cnumpy
dtype
p4
(S'f8'
p5
I0
I1
tp6
Rp7
(I3
S'<'
p8
NNNI-1
I-1
I0
tp9
bS'\xce[7>?J\xa6>'
p10
tp11
Rp12
s(I6
I64
tp13
g3
(g7
S'\xfd\xea\xdc\x05\x0b\x10\x13='
p14
tp15
Rp16
s(I7
I16
tp17
g3
(g7
S'\x05\x80s\xfa\xde6\xd2='
p18
tp19
Rp20
s(I5
I32
tp21
g3
(g7
S'\x85?\xcd}Pe\xc3='
p22
tp23
Rp24
s(I5
I8
tp25
g3
(g7
S'\xb0\xd5\x7f\x80\x12}`>'
p26
tp27
Rp28
s(I7
I64
tp29
g3
(g7
S'\xfd\xea\xdc\x05\x0b\x10\x13='
p30
tp31
Rp32
s(I6
I32
tp33
g3
(g7
S'N\xa5\xb1\xcf\x19\x91s='
p34
tp35
Rp36
sS'niter_arr'
p37
(lp38
I3
aI4
aI5
aI6
aI7
as(I3
I16
tp39
g3
(g7
S'l\x91\x19\x99\xe9\xad\xc3>'
p40
tp41
Rp42
sS'type'
p43
S'SDC'
p44
s(I7
I32
tp45
g3
(g7
S'\xde\xa0\xea\xddE\x00r='
p46
tp47
Rp48
s(I3
I64
tp49
g3
(g7
S'\xe6k\\\xf3b\x03h>'
p50
tp51
Rp52
s(I4
I16
tp53
g3
(g7
S'\xd3m\x90\xd4\xae\xe3k>'
p54
tp55
Rp56
s(I4
I64
tp57
g3
(g7
S'\xbe\x07\x9d\x91@\xe8\xf0='
p58
tp59
Rp60
sS'nsteps_arr'
p61
(lp62
I8
aI16
aI32
aI64
as(I6
I8
tp63
g3
(g7
S'\xea\x14\xb5\xab\xe3D5>'
p64
tp65
Rp66
s(I5
I16
tp67
g3
(g7
S'Q\xd4\xb7*\xa2!\x12>'
p68
tp69
Rp70
s(I3
I32
tp71
g3
(g7
S'\xf3\x902\x9b[r\x96>'
p72
tp73
Rp74
s(I3
I8
tp75
g3
(g7
S'\xf4I!\xf6\xcb\xac\xee>'
p76
tp77
Rp78
s(I5
I64
tp79
g3
(g7
S'\x13o\x84\xfe9&t='
p80
tp81
Rp82
s(I7
I8
tp83
g3
(g7
S'\xdb\x85i\x03\x96\x922>'
p84
tp85
Rp86
s(I6
I16
tp87
g3
(g7
S'5\\\xf3\n\xecI\xd4='
p88
tp89
Rp90
s(I4
I32
tp91
g3
(g7
S"$\x90o'l\xa5/>"
p92
tp93
Rp94
sa(dp95
(I4
I8
tp96
g3
(g7
S'\xfb.\x18\xbc\x89t\x8b>'
p97
tp98
Rp99
s(I6
I64
tp100
g3
(g7
S'\xactA\xabh\x00\x12='
p101
tp102
Rp103
s(I7
I16
tp104
g3
(g7
S'\xf8u\xed\x8b\xe2/\xd2='
p105
tp106
Rp107
s(I5
I32
tp108
g3
(g7
S'\xa2\x02jv\xd1\xea\x9f='
p109
tp110
Rp111
s(I5
I8
tp112
g3
(g7
S'\xf9E\xdbhR\xaeB>'
p113
tp114
Rp115
s(I7
I64
tp116
g3
(g7
S'\xactA\xabh\x00\x12='
p117
tp118
Rp119
s(I6
I32
tp120
g3
(g7
S'\x88q!JA\x05r='
p121
tp122
Rp123
sg37
g38
s(I3
I16
tp124
g3
(g7
S'\xd0!\xbc#\xf3\x7f\xaa>'
p125
tp126
Rp127
sg43
S'MLSDC'
p128
s(I7
I32
tp129
g3
(g7
S'\xb2>\n\xb6\xb6\xfeq='
p130
tp131
Rp132
s(I3
I64
tp133
g3
(g7
S'2\x9e"\xfa\x11\xf6L>'
p134
tp135
Rp136
s(I4
I16
tp137
g3
(g7
S'\xca\xaav\x90\xe4\xa9M>'
p138
tp139
Rp140
s(I4
I64
tp141
g3
(g7
S'\xf2\x8cp9\xe1\xf3\xce='
p142
tp143
Rp144
sg61
g62
s(I6
I8
tp145
g3
(g7
S'@\xa0H\xfc<\x932>'
p146
tp147
Rp148
s(I5
I16
tp149
g3
(g7
S'=f\x08Km\x9e\xf0='
p150
tp151
Rp152
s(I3
I32
tp153
g3
(g7
S'l\xb8{\xa4\xe3 |>'
p154
tp155
Rp156
s(I3
I8
tp157
g3
(g7
S'r\x0c+j\x91a\xd7>'
p158
tp159
Rp160
s(I5
I64
tp161
g3
(g7
S'/\xa1w\xcb\xa5[O='
p162
tp163
Rp164
s(I7
I8
tp165
g3
(g7
S'\x9fNd\x05\x05z2>'
p166
tp167
Rp168
s(I6
I16
tp169
g3
(g7
S'\x87#\xc3\xd789\xd2='
p170
tp171
Rp172
s(I4
I32
tp173
g3
(g7
S'{\x1e\x81?\x83\x90\x0e>'
p174
tp175
Rp176
sa.