(lp0
(dp1
(I2
I4096
tp2
cnumpy.core.multiarray
scalar
p3
(cnumpy
dtype
p4
(S'f8'
p5
I0
I1
tp6
Rp7
(I3
S'<'
p8
NNNI-1
I-1
I0
tp9
<<<<<<< HEAD
<<<<<<< HEAD
bS'@\xacwv\x05\xa6\x87?'
=======
bS'\x00\x80\xe7jI\xa8\x0b?'
>>>>>>> changed boundaries for allencahn (and init_val)
=======
bS'\x00\xc0\x91\xeb\xeb1\x89>'
>>>>>>> changed some stuff (mainly for auzinger and vanderpol)
p10
tp11
Rp12
s(I3
I65536
tp13
g3
(g7
<<<<<<< HEAD
<<<<<<< HEAD
S'\x00\xa8F}8\xdb\x15?'
=======
S'\x00\x00\xe0|Y\x13c>'
>>>>>>> changed boundaries for allencahn (and init_val)
=======
S'\x00\x00\x00\x00\x00\x00 <'
>>>>>>> changed some stuff (mainly for auzinger and vanderpol)
p14
tp15
Rp16
s(I2
I32768
tp17
g3
(g7
<<<<<<< HEAD
<<<<<<< HEAD
S'P\xd0\xe2\x07C\x1e\x9b?'
=======
S'\x00\x00V\x98\x8fe\xeb>'
>>>>>>> changed boundaries for allencahn (and init_val)
=======
S'\x00\x00\x08D^\xac\x10>'
>>>>>>> changed some stuff (mainly for auzinger and vanderpol)
p18
tp19
Rp20
s(I1
I32768
tp21
g3
(g7
<<<<<<< HEAD
<<<<<<< HEAD
S'\x00\xefs\xc4\x1b\x10P?'
=======
S'\x00\x00\x00v\xd9\x0ef>'
>>>>>>> changed boundaries for allencahn (and init_val)
=======
S'\x00 \x88]&\tp>'
>>>>>>> changed some stuff (mainly for auzinger and vanderpol)
p22
tp23
Rp24
s(I4
I16384
tp25
g3
(g7
<<<<<<< HEAD
<<<<<<< HEAD
S'\x00\x95\xe1\xe2\xff\xb0X?'
=======
S'\xd0\xfe\xd7\x085<\xa2?'
>>>>>>> changed boundaries for allencahn (and init_val)
=======
S'\x00\x00\x00\x00\x00\x00\xa0<'
>>>>>>> changed some stuff (mainly for auzinger and vanderpol)
p26
tp27
Rp28
s(I1
I4096
tp29
g3
(g7
<<<<<<< HEAD
<<<<<<< HEAD
S' \xcb\x15\xed\xdal\x88?'
=======
S'`n\x13\xdfv\xa6\x90?'
>>>>>>> changed boundaries for allencahn (and init_val)
=======
S'\x00\xfan\xf9|/\xbf>'
>>>>>>> changed some stuff (mainly for auzinger and vanderpol)
p30
tp31
Rp32
s(I2
I8192
tp33
g3
(g7
<<<<<<< HEAD
<<<<<<< HEAD
S'\x00\x80\xcb\xad\xa7\\\xdc>'
=======
S'\x00\x00\x8f\x01\x81\x7f\xe9>'
>>>>>>> changed boundaries for allencahn (and init_val)
=======
S'\x00\xc0\x92\xe0\xff\xe3e>'
>>>>>>> changed some stuff (mainly for auzinger and vanderpol)
p34
tp35
Rp36
s(I3
I16384
tp37
g3
(g7
<<<<<<< HEAD
<<<<<<< HEAD
S'\x00)\xe2\xe0NF\x80?'
=======
S'\x00\xf4\x9fiY\xe3R?'
>>>>>>> changed boundaries for allencahn (and init_val)
=======
S'\x00\x00@\xff\xbf\xa5\xe7='
>>>>>>> changed some stuff (mainly for auzinger and vanderpol)
p38
tp39
Rp40
s(I3
I4096
tp41
g3
(g7
<<<<<<< HEAD
<<<<<<< HEAD
S'\x80\x11>\xb4b\x10j?'
=======
S'\x00\x00\x00\x14\x83\xa4\x87>'
>>>>>>> changed boundaries for allencahn (and init_val)
p42
tp43
Rp44
s(I3
I16384
tp45
g3
(g7
<<<<<<< HEAD
S'\x00dO\xed\x15\xd48?'
=======
S'\x00\x00\x90\xf6\x86\x98\xb7>'
>>>>>>> changed boundaries for allencahn (and init_val)
p46
tp47
Rp48
s(I2
I8192
tp49
g3
(g7
S'\x00X\xcfV\xd0\xbc1?'
p50
tp51
Rp52
s(I3
I1024
tp53
g3
(g7
S'\x00h\x07,R\x90@?'
p54
tp55
Rp56
=======
S'\x00\x80\x9f\x82R\xf1Q>'
p42
tp43
Rp44
>>>>>>> changed some stuff (mainly for auzinger and vanderpol)
sS'niter_arr'
p45
(lp46
I1
aI2
aI3
aI4
aI5
as(I5
<<<<<<< HEAD
<<<<<<< HEAD
I32768
tp51
g3
(g7
S'\x008y\xef\xf9\xbe1?'
p52
tp53
Rp54
s(I4
I524288
tp55
g3
(g7
S'\x00\x00\xa8z{\xc3\xa4>'
p56
tp57
Rp58
s(I4
I131072
tp59
g3
(g7
S'\x00`\xda\x0c++\x13?'
=======
I1024
tp59
g3
(g7
S'\x00\x00\xf2\x10\x89\x1d\xe4>'
>>>>>>> changed boundaries for allencahn (and init_val)
p60
tp61
Rp62
=======
I4096
tp47
g3
(g7
S'\x00\x00\x00\xca\x84@\xd6='
p48
tp49
Rp50
s(I2
I65536
tp51
g3
(g7
S'\x00\x00\x00\xbd\x07\x12\xe2='
p52
tp53
Rp54
>>>>>>> changed some stuff (mainly for auzinger and vanderpol)
s(I4
I8192
tp55
g3
(g7
<<<<<<< HEAD
<<<<<<< HEAD
S'\x00\x10U\xc5\x94\xc4"?'
p66
tp67
Rp68
=======
S'\x00\x00PE\x1d\x86\xa4>'
p64
tp65
Rp66
=======
S'\x00\x00\x00\x00Zq\xd8='
p56
tp57
Rp58
>>>>>>> changed some stuff (mainly for auzinger and vanderpol)
sS'type'
p59
S'SDC'
<<<<<<< HEAD
p68
>>>>>>> changed boundaries for allencahn (and init_val)
=======
p60
s(I3
I8192
tp61
g3
(g7
S'\x00\x00\x90\xb0\xb3\xfb\x1f>'
p62
tp63
Rp64
>>>>>>> changed some stuff (mainly for auzinger and vanderpol)
s(I5
I8192
tp65
g3
(g7
S'\x00\x00\x00\x00\x00\x00\xa0<'
p66
tp67
Rp68
s(I4
I4096
tp69
g3
(g7
<<<<<<< HEAD
<<<<<<< HEAD
S'\x00\x00\xc0Q\xca\xe7a>'
=======
S'\x00\x00\xe8\xd3\x11\xc8\xae>'
>>>>>>> changed boundaries for allencahn (and init_val)
=======
S'\x00\x00(2\xa0\xf6\x15>'
>>>>>>> changed some stuff (mainly for auzinger and vanderpol)
p70
tp71
Rp72
s(I1
I16384
tp73
g3
(g7
<<<<<<< HEAD
<<<<<<< HEAD
S'\x00x\x14x\xf5\xb6*?'
=======
S'\x00\x00\xc0\xe2\xe6\xcaB>'
>>>>>>> changed boundaries for allencahn (and init_val)
=======
S'\x00\x00[\xbc\xc7\xf4\x8c>'
>>>>>>> changed some stuff (mainly for auzinger and vanderpol)
p74
tp75
Rp76
s(I5
I16384
tp77
g3
(g7
<<<<<<< HEAD
<<<<<<< HEAD
S'\xf0\x17s\xb7c7\xaa?'
=======
S'\xb0\x00xA\xdf\x9d\xb1?'
>>>>>>> changed boundaries for allencahn (and init_val)
=======
S'\x00\x00\x00\x00\x00\x00\xa0<'
>>>>>>> changed some stuff (mainly for auzinger and vanderpol)
p78
tp79
Rp80
s(I4
I32768
tp81
g3
(g7
<<<<<<< HEAD
<<<<<<< HEAD
S'\x00e\xe7,\\kA?'
=======
S'\x00\x00\xa0\x94\x0b\xed\xd4>'
>>>>>>> changed boundaries for allencahn (and init_val)
=======
S'\x00\x00\x00\x00\x00\x00\xa0<'
>>>>>>> changed some stuff (mainly for auzinger and vanderpol)
p82
tp83
Rp84
s(I1
I65536
tp85
g3
(g7
<<<<<<< HEAD
<<<<<<< HEAD
S'`\xb8\n\\\xb0 q?'
=======
S'\x00\x9a\xa6\x97\xe1\xa5^?'
>>>>>>> changed boundaries for allencahn (and init_val)
=======
S'\x00\x00\xa2\x91\xd9\xe1P>'
>>>>>>> changed some stuff (mainly for auzinger and vanderpol)
p86
tp87
Rp88
s(I5
I65536
tp89
g3
(g7
S'\x00\x00\x00\x00\x00\x00 <'
p90
tp91
Rp92
sS'nsteps_arr'
p93
(lp94
I4096
aI8192
aI16384
aI32768
aI65536
as(I2
<<<<<<< HEAD
I1024
tp91
g3
(g7
<<<<<<< HEAD
S'\x00`\x1c\xdd\xed\x83\xe6>'
p90
tp91
Rp92
sS'nsteps_arr'
p93
(lp94
I32768
aI65536
aI131072
aI262144
aI524288
as(I5
I262144
tp95
g3
(g7
S'\x00\x004\n\x08\x99\xa5>'
=======
S'\x80\x17*\x1c\x0c\xaa\x81?'
p92
tp93
Rp94
s(I3
I4096
tp95
g3
(g7
S'\x00@:Ti\r\x16?'
>>>>>>> changed boundaries for allencahn (and init_val)
=======
I16384
tp95
g3
(g7
S'\x00\x00\xb2\x0b\xe75=>'
>>>>>>> changed some stuff (mainly for auzinger and vanderpol)
p96
tp97
Rp98
s(I4
I65536
tp99
g3
(g7
<<<<<<< HEAD
<<<<<<< HEAD
S'\x00\x10\x14\xe5\xe5U\xf5>'
=======
S"\x00\xb8',Zl4?"
>>>>>>> changed boundaries for allencahn (and init_val)
=======
S'\x00\x00\x00\x00\x00\x00 <'
>>>>>>> changed some stuff (mainly for auzinger and vanderpol)
p100
tp101
Rp102
s(I3
I32768
tp103
g3
(g7
<<<<<<< HEAD
<<<<<<< HEAD
S'\x80.\xb8\x08\xe3\x7fk?'
=======
S'\x00\x07W\xdd\xba\x03o?'
>>>>>>> changed boundaries for allencahn (and init_val)
=======
S'\x00\x00\x00\x00\x00\x00\xa0<'
>>>>>>> changed some stuff (mainly for auzinger and vanderpol)
p104
tp105
Rp106
s(I5
I32768
tp107
g3
(g7
<<<<<<< HEAD
<<<<<<< HEAD
S"D\xe7'\x00d\x07\xb4?"
=======
S'\x000w\xba\x01\x99\x04?'
>>>>>>> changed boundaries for allencahn (and init_val)
=======
S'\x00\x00\x00\x00\x00\x00\xa0<'
>>>>>>> changed some stuff (mainly for auzinger and vanderpol)
p108
tp109
Rp110
s(I1
I8192
tp111
g3
(g7
<<<<<<< HEAD
<<<<<<< HEAD
S'\x00\xfd\xfa\xf5\xe5\x10N?'
=======
S'\x80\xcb\x8b!\xa5wx?'
>>>>>>> changed boundaries for allencahn (and init_val)
=======
S'\x00\xf4t1[\x98\xa7>'
>>>>>>> changed some stuff (mainly for auzinger and vanderpol)
p112
tp113
Rp114
sa(dp115
(I2
I4096
tp116
g3
(g7
<<<<<<< HEAD
<<<<<<< HEAD
S'\x00\xe6\xc9\xadD\x83\x83?'
=======
S'\x00\x00\x00\xc5,\x0ef>'
>>>>>>> changed boundaries for allencahn (and init_val)
=======
S'\x00\x00@Vjw\x8a>'
>>>>>>> changed some stuff (mainly for auzinger and vanderpol)
p117
tp118
Rp119
s(I3
I65536
tp120
g3
(g7
<<<<<<< HEAD
<<<<<<< HEAD
S'\x00\xfc\xaf\xa4\x11\x9c%?'
=======
S'\x00\x00\x00\xa8\xa7U\xe5='
>>>>>>> changed boundaries for allencahn (and init_val)
=======
S'\x00\x00\x00\x00\x80[\x94='
>>>>>>> changed some stuff (mainly for auzinger and vanderpol)
p121
tp122
Rp123
s(I2
I32768
tp124
g3
(g7
<<<<<<< HEAD
<<<<<<< HEAD
S'\xc0\x0b\x884Y\x1e\x9b?'
=======
S'\x00\x00\x00G\xf0\\:>'
>>>>>>> changed boundaries for allencahn (and init_val)
=======
S'\x00\x00\x00\x80\xb0[\x11>'
>>>>>>> changed some stuff (mainly for auzinger and vanderpol)
p125
tp126
Rp127
s(I1
I32768
tp128
g3
(g7
<<<<<<< HEAD
<<<<<<< HEAD
S'\x00}\x9b\x17\xc1\x97G?'
=======
S'\x00\x00\x80\xe0\x1c\x90\x15>'
>>>>>>> changed boundaries for allencahn (and init_val)
=======
S'\x00\x00\x80\x18Y\xe5r>'
>>>>>>> changed some stuff (mainly for auzinger and vanderpol)
p129
tp130
Rp131
s(I4
I16384
tp132
g3
(g7
<<<<<<< HEAD
<<<<<<< HEAD
S'\x00l\x81\xa2\xfe&Y?'
=======
S'\x00\x94W\xdf\xa2\x03o?'
>>>>>>> changed boundaries for allencahn (and init_val)
=======
S'\x00\x00\x00\x00`\x0e\x9e='
>>>>>>> changed some stuff (mainly for auzinger and vanderpol)
p133
tp134
Rp135
s(I1
I4096
tp136
g3
(g7
<<<<<<< HEAD
<<<<<<< HEAD
S'`g\xcfl\xe8l\x88?'
=======
S'\x00\xce\xe68I\xe3R?'
>>>>>>> changed boundaries for allencahn (and init_val)
=======
S'\x00\x00\x90m\x11\xad\xc5>'
>>>>>>> changed some stuff (mainly for auzinger and vanderpol)
p137
tp138
Rp139
s(I2
I8192
tp140
g3
(g7
<<<<<<< HEAD
<<<<<<< HEAD
S'\x00\xc0\x9b\x85\x95\xce\xf2>'
=======
S'\x00\x00\x00\xc0z\x9bB>'
>>>>>>> changed boundaries for allencahn (and init_val)
=======
S'\x00\x00\x00r\x01\xddf>'
>>>>>>> changed some stuff (mainly for auzinger and vanderpol)
p141
tp142
Rp143
s(I3
I16384
tp144
g3
(g7
<<<<<<< HEAD
<<<<<<< HEAD
S'\xc0\x8d\x9c\n\xb1o\x83?'
=======
S'\x00\x00\x94\xb4\x7f\xec\xd4>'
>>>>>>> changed boundaries for allencahn (and init_val)
=======
S'\x00\x00\xc0\xfe\xdds\xe9='
>>>>>>> changed some stuff (mainly for auzinger and vanderpol)
p145
tp146
Rp147
s(I3
I4096
tp148
g3
(g7
<<<<<<< HEAD
<<<<<<< HEAD
S"\x80'\xdf\x97\xe9V_?"
=======
S'\x00\x00\x00\x00\xbd\xe1\xeb='
>>>>>>> changed boundaries for allencahn (and init_val)
=======
S'\x00\x00\x00T7\x81R>'
>>>>>>> changed some stuff (mainly for auzinger and vanderpol)
p149
tp150
Rp151
sg45
g46
s(I5
I4096
tp152
g3
(g7
<<<<<<< HEAD
<<<<<<< HEAD
S'\x00\xa4Xp_\xebG?'
=======
S'\x00\x00\x00\x83\xa3:\x1a>'
>>>>>>> changed boundaries for allencahn (and init_val)
=======
S'\x00\x00\x00Y)\x98\xde='
>>>>>>> changed some stuff (mainly for auzinger and vanderpol)
p153
tp154
Rp155
s(I2
I65536
tp156
g3
(g7
<<<<<<< HEAD
<<<<<<< HEAD
S'\x00\xc4\xa5;\x9dn)?'
=======
S'\x00\x00\xf0\xda\x8c\x85\xa4>'
>>>>>>> changed boundaries for allencahn (and init_val)
=======
S'\x00\x00\x00\x00\x90\xd1\xe2='
>>>>>>> changed some stuff (mainly for auzinger and vanderpol)
p157
tp158
Rp159
s(I4
I8192
tp160
g3
(g7
<<<<<<< HEAD
<<<<<<< HEAD
S'\x00\x00!\tw\xb8\xb9>'
=======
S'\x00\x00\xe1\xf5]\xb9\xc0>'
>>>>>>> changed boundaries for allencahn (and init_val)
=======
S'\x00\x00\x00\x97\xda\xa6\xdc='
>>>>>>> changed some stuff (mainly for auzinger and vanderpol)
p161
tp162
Rp163
sg59
S'MLSDC'
p164
s(I3
I8192
tp165
g3
(g7
<<<<<<< HEAD
<<<<<<< HEAD
S'\x00`hGpo\x17?'
=======
S'\x00\x00\x00\x88\x1d\xc5:>'
>>>>>>> changed boundaries for allencahn (and init_val)
p165
tp166
Rp167
s(I4
=======
S'\x00\x000\xe1\x02\x11!>'
p166
tp167
Rp168
s(I5
>>>>>>> changed some stuff (mainly for auzinger and vanderpol)
I8192
tp169
g3
(g7
<<<<<<< HEAD
<<<<<<< HEAD
S'\x00\x98)cA\x96\x1a?'
p170
tp171
Rp172
=======
S'\x00\x00\x00\xb6\x98\xe4\x02>'
p169
tp170
Rp171
sg67
S'MLSDC'
p172
>>>>>>> changed boundaries for allencahn (and init_val)
s(I5
I2048
tp173
g3
(g7
<<<<<<< HEAD
S'\x00\x00`b6c{>'
=======
S'\x00\x00\x00\xc0.M\x0c>'
>>>>>>> changed boundaries for allencahn (and init_val)
=======
S'\x00\x00\x00\x00 F\x93='
p170
tp171
Rp172
s(I4
I4096
tp173
g3
(g7
S'\x00\x00\xf0\xefT\xc0\x19>'
>>>>>>> changed some stuff (mainly for auzinger and vanderpol)
p174
tp175
Rp176
s(I1
I16384
tp177
g3
(g7
<<<<<<< HEAD
<<<<<<< HEAD
S'\x00\x82\x0b\x86\xe0\xc33?'
=======
S'\x00\x00\x00\xbczx\xff='
>>>>>>> changed boundaries for allencahn (and init_val)
=======
S'\x00\x00\x80gr]\x91>'
>>>>>>> changed some stuff (mainly for auzinger and vanderpol)
p178
tp179
Rp180
s(I5
I16384
tp181
g3
(g7
<<<<<<< HEAD
<<<<<<< HEAD
S'8\xbdCs}7\xaa?'
=======
S'\xc0r\xff\t\xff\xa9\x81?'
>>>>>>> changed boundaries for allencahn (and init_val)
=======
S'\x00\x00\x00\x00`\x0e\x9e='
>>>>>>> changed some stuff (mainly for auzinger and vanderpol)
p182
tp183
Rp184
s(I4
I32768
tp185
g3
(g7
<<<<<<< HEAD
<<<<<<< HEAD
S'\x008\xdf,HQ>?'
=======
S'\x00\x00\x00h\xc0\xd8!>'
>>>>>>> changed boundaries for allencahn (and init_val)
=======
S'\x00\x00\x00\x00@\xbd\x92='
>>>>>>> changed some stuff (mainly for auzinger and vanderpol)
p186
tp187
Rp188
s(I1
I65536
tp189
g3
(g7
<<<<<<< HEAD
<<<<<<< HEAD
S'@\xd0U\xfa\xb7 q?'
=======
S'\x00\x80\xef\xa4"\xa8\x0b?'
>>>>>>> changed boundaries for allencahn (and init_val)
=======
S'\x00\x00\x00\x08\xe6\xbaS>'
>>>>>>> changed some stuff (mainly for auzinger and vanderpol)
p190
tp191
Rp192
s(I5
I65536
tp193
g3
(g7
<<<<<<< HEAD
<<<<<<< HEAD
S'\x00P\x11 \x85\x04\xf6>'
=======
S'\x00pA,x\x9f\x04?'
>>>>>>> changed boundaries for allencahn (and init_val)
=======
S'\x00\x00\x00\x00\x80[\x94='
>>>>>>> changed some stuff (mainly for auzinger and vanderpol)
p194
tp195
Rp196
sg93
g94
s(I2
I16384
tp197
g3
(g7
<<<<<<< HEAD
<<<<<<< HEAD
S'\x00\x00\xfe\xd8\x8a/\xba>'
=======
S'\x00\x00@\xd2k\xcf\\>'
>>>>>>> changed boundaries for allencahn (and init_val)
=======
S'\x00\x00\x00(\xe5c>>'
>>>>>>> changed some stuff (mainly for auzinger and vanderpol)
p198
tp199
Rp200
s(I4
I65536
tp201
g3
(g7
<<<<<<< HEAD
<<<<<<< HEAD
S'\x00\x80Q\xb8\x8f\xe3\xf9>'
=======
S'\x00\x00\xc0\xd1}0\x86>'
>>>>>>> changed boundaries for allencahn (and init_val)
=======
S'\x00\x00\x00\x00\x80[\x94='
>>>>>>> changed some stuff (mainly for auzinger and vanderpol)
p202
tp203
Rp204
s(I3
I32768
tp205
g3
(g7
<<<<<<< HEAD
<<<<<<< HEAD
S'\xc0_\xde\x86\xd0\xcfr?'
=======
S'\x00\x00:)\x93~\xe9>'
>>>>>>> changed boundaries for allencahn (and init_val)
=======
S'\x00\x00\x00\x00@\xbd\x92='
>>>>>>> changed some stuff (mainly for auzinger and vanderpol)
p206
tp207
Rp208
s(I5
I32768
tp209
g3
(g7
<<<<<<< HEAD
<<<<<<< HEAD
S'HS\xb3W\x89\x07\xb4?'
=======
S'\x00\x00 \xee\xea9u>'
>>>>>>> changed boundaries for allencahn (and init_val)
=======
S'\x00\x00\x00\x00@\xbd\x92='
>>>>>>> changed some stuff (mainly for auzinger and vanderpol)
p210
tp211
Rp212
s(I1
I8192
tp213
g3
(g7
<<<<<<< HEAD
<<<<<<< HEAD
S'\x80\xa0W,\x9f\x91U?'
=======
S'\x00Hz\x9b\xb8\xbc1?'
>>>>>>> changed boundaries for allencahn (and init_val)
=======
S'\x00\x000gk{\xad>'
>>>>>>> changed some stuff (mainly for auzinger and vanderpol)
p214
tp215
Rp216
sa.