(lp0
(dp1
(I2
I16384
tp2
cnumpy.core.multiarray
scalar
p3
(cnumpy
dtype
p4
(S'f8'
p5
I0
I1
tp6
Rp7
(I3
S'<'
p8
NNNI-1
I-1
I0
tp9
bS'f^\x16\x97*z1>'
p10
tp11
Rp12
s(I3
I65536
tp13
g3
(g7
S'\x9b\xfc\xfe\xcc\xd9\x1c\xff<'
p14
tp15
Rp16
s(I4
I16384
tp17
g3
(g7
S'\xa3[\x17\x93\x83*\xb5<'
p18
tp19
Rp20
s(I4
I32768
tp21
g3
(g7
S'@\xe0 \x00p\xe1\xd4<'
p22
tp23
Rp24
s(I1
I65536
tp25
g3
(g7
S'\xc3N;\x9e%\xf3\xa4>'
p26
tp27
Rp28
s(I4
I131072
tp29
g3
(g7
S'kXK\x07\xc6H\xcc<'
p30
tp31
Rp32
s(I2
I32768
tp33
g3
(g7
S'%\x01\xd4qN\x95\x01>'
p34
tp35
Rp36
s(I3
I16384
tp37
g3
(g7
S'\x94\r\x0b\x02\xb8H~='
p38
tp39
Rp40
s(I3
I131072
tp41
g3
(g7
S'\x12;p.B\xf9\xd2<'
p42
tp43
Rp44
sS'niter_arr'
p45
(lp46
I1
aI2
aI3
aI4
aI5
as(I5
I65536
tp47
g3
(g7
S'tg\x1e\x86\x9e\xa0\xb6<'
p48
tp49
Rp50
s(I4
I65536
tp51
g3
(g7
S'tg\x1e\x86\x9e\xa0\xb6<'
p52
tp53
Rp54
sS'type'
p55
S'SDC'
p56
s(I5
I32768
tp57
g3
(g7
S'B\xc1\xa6\xc8\xe6^\xd0<'
p58
tp59
Rp60
s(I1
I16384
tp61
g3
(g7
S'}\x94~Ad\xcb\xe4>'
p62
tp63
Rp64
s(I5
I16384
tp65
g3
(g7
S'\xe11_\xe2\xe6^\xd0<'
p66
tp67
Rp68
s(I1
I32768
tp69
g3
(g7
S'~\xffii\xdc\xe5\xc4>'
p70
tp71
Rp72
s(I1
I131072
tp73
g3
(g7
S'V\xfcq\x85\xcd\xf9\x84>'
p74
tp75
Rp76
sS'nsteps_arr'
p77
(lp78
I16384
aI32768
aI65536
aI131072
as(I5
I131072
tp79
g3
(g7
S'kXK\x07\xc6H\xcc<'
p80
tp81
Rp82
s(I2
I65536
tp83
g3
(g7
S'&NE\xb9\xf0\xa2\xd1='
p84
tp85
Rp86
s(I2
I131072
tp87
g3
(g7
S'\x1a\x9e\x12\xe9\x1f\xaa\xa1='
p88
tp89
Rp90
s(I3
I32768
tp91
g3
(g7
S'f\x99\xa5\x0c\x97~>='
p92
tp93
Rp94
sa(dp95
(I2
I16384
tp96
g3
(g7
S'f^\x16\x97*z1>'
p97
tp98
Rp99
s(I3
I65536
tp100
g3
(g7
S'\x9b\xfc\xfe\xcc\xd9\x1c\xff<'
p101
tp102
Rp103
s(I4
I16384
tp104
g3
(g7
S'\xa3[\x17\x93\x83*\xb5<'
p105
tp106
Rp107
s(I4
I32768
tp108
g3
(g7
S'@\xe0 \x00p\xe1\xd4<'
p109
tp110
Rp111
s(I1
I65536
tp112
g3
(g7
S'\xc3N;\x9e%\xf3\xa4>'
p113
tp114
Rp115
s(I4
I131072
tp116
g3
(g7
S'kXK\x07\xc6H\xcc<'
p117
tp118
Rp119
s(I2
I32768
tp120
g3
(g7
S'%\x01\xd4qN\x95\x01>'
p121
tp122
Rp123
s(I3
I16384
tp124
g3
(g7
S'\x94\r\x0b\x02\xb8H~='
p125
tp126
Rp127
s(I3
I131072
tp128
g3
(g7
S'\x12;p.B\xf9\xd2<'
p129
tp130
Rp131
sg45
g46
s(I5
I65536
tp132
g3
(g7
S'tg\x1e\x86\x9e\xa0\xb6<'
p133
tp134
Rp135
s(I4
I65536
tp136
g3
(g7
S'tg\x1e\x86\x9e\xa0\xb6<'
p137
tp138
Rp139
sg55
S'MLSDC'
p140
s(I5
I32768
tp141
g3
(g7
S'B\xc1\xa6\xc8\xe6^\xd0<'
p142
tp143
Rp144
s(I1
I16384
tp145
g3
(g7
S'}\x94~Ad\xcb\xe4>'
p146
tp147
Rp148
s(I5
I16384
tp149
g3
(g7
S'\xe11_\xe2\xe6^\xd0<'
p150
tp151
Rp152
s(I1
I32768
tp153
g3
(g7
S'~\xffii\xdc\xe5\xc4>'
p154
tp155
Rp156
s(I1
I131072
tp157
g3
(g7
S'V\xfcq\x85\xcd\xf9\x84>'
p158
tp159
Rp160
sg77
g78
s(I5
I131072
tp161
g3
(g7
S'kXK\x07\xc6H\xcc<'
p162
tp163
Rp164
s(I2
I65536
tp165
g3
(g7
S'&NE\xb9\xf0\xa2\xd1='
p166
tp167
Rp168
s(I2
I131072
tp169
g3
(g7
S'\x1a\x9e\x12\xe9\x1f\xaa\xa1='
p170
tp171
Rp172
s(I3
I32768
tp173
g3
(g7
S'f\x99\xa5\x0c\x97~>='
p174
tp175
Rp176
sa.