(lp0
(dp1
(I2
I16384
tp2
cnumpy.core.multiarray
scalar
p3
(cnumpy
dtype
p4
(S'f8'
p5
I0
I1
tp6
Rp7
(I3
S'<'
p8
NNNI-1
I-1
I0
tp9
bS'p\xf6\x07t\xc7\xa7\x90?'
p10
tp11
Rp12
s(I3
I65536
tp13
g3
(g7
S'\xca\x84\xc6\xe3*\xa3\x15?'
p14
tp15
Rp16
s(I4
I16384
tp17
g3
(g7
S'\x00\xc8K9s\x84>?'
p18
tp19
Rp20
s(I4
I32768
tp21
g3
(g7
S'\x00@L"\x0f\xd6\x06?'
p22
tp23
Rp24
s(I1
I65536
tp25
g3
(g7
S'\x9e\xec\xc6\xbc*\x06\xa1?'
p26
tp27
Rp28
s(I4
I131072
tp29
g3
(g7
S'\xaah\x87\xbf\xc3\x89\x96>'
p30
tp31
Rp32
s(I2
I32768
tp33
g3
(g7
S'\x80RO%\xdd\x9fw?'
p34
tp35
Rp36
s(I3
I16384
tp37
g3
(g7
S'\x00\xff*N\tBd?'
p38
tp39
Rp40
s(I3
I131072
tp41
g3
(g7
S'\xcc`8\xf3\x12c\xe9>'
p42
tp43
Rp44
sS'niter_arr'
p45
(lp46
I1
aI2
aI3
aI4
aI5
as(I5
I65536
tp47
g3
(g7
S'S\xc1m(\xa2\xef\x8b>'
p48
tp49
Rp50
s(I4
I65536
tp51
g3
(g7
S'J`Ik\xeb\xbd\xd1>'
p52
tp53
Rp54
sS'type'
p55
S'SDC'
p56
s(I5
I32768
tp57
g3
(g7
S'\x00\x00\x92w\x17\x10\xd3>'
p58
tp59
Rp60
s(I1
I16384
tp61
g3
(g7
S'\xd8\x90\xb7\xb7\xdc-\xbb?'
p62
tp63
Rp64
s(I5
I16384
tp65
g3
(g7
S'\x00\x00h\xdbL\\\x14?'
p66
tp67
Rp68
s(I1
I32768
tp69
g3
(g7
S'U\xa0\x06\x11.i\xaf?'
p70
tp71
Rp72
s(I1
I131072
tp73
g3
(g7
S'\xfd\t\x00j\xf8\xc4\x91?'
p74
tp75
Rp76
sS'nsteps_arr'
p77
(lp78
I16384
aI32768
aI65536
aI131072
as(I5
I131072
tp79
g3
(g7
S'\xb1\xb6\xfc\x1aX\x96C>'
p80
tp81
Rp82
s(I2
I65536
tp83
g3
(g7
S'\x00\xd7\x9c\xef+\xd5\\?'
p84
tp85
Rp86
s(I2
I131072
tp87
g3
(g7
S'\x00~d\xb1\xf1\x0b@?'
p88
tp89
Rp90
s(I3
I32768
tp91
g3
(g7
S'\xaf\r\x0e\xbbv\xd8??'
p92
tp93
Rp94
sa(dp95
(I2
I16384
tp96
g3
(g7
S'\xa0X%\xa1\xfb\xc7\xa2?'
p97
tp98
Rp99
s(I3
I65536
tp100
g3
(g7
S"\x00\xe8^B\xfe\xb9'?"
p101
tp102
Rp103
s(I4
I16384
tp104
g3
(g7
S'\x00\xb1\x03h\x8a\xf6P?'
p105
tp106
Rp107
s(I4
I32768
tp108
g3
(g7
S'\x00 \x9fq\xb6^\x1c?'
p109
tp110
Rp111
s(I1
I65536
tp112
g3
(g7
S'\x14\xca\xef\xcej\xbc\xb2?'
p113
tp114
Rp115
s(I4
I131072
tp116
g3
(g7
S'\x00\x00HRr\xce\xa6>'
p117
tp118
Rp119
s(I2
I32768
tp120
g3
(g7
S'\xe0\xe9\x8b0cT\x85?'
p121
tp122
Rp123
s(I3
I16384
tp124
g3
(g7
S'\x803\x9ar\x90Mz?'
p125
tp126
Rp127
s(I3
I131072
tp128
g3
(g7
S'\x00\x80\xa2>\xb2\x9a\xfa>'
p129
tp130
Rp131
sg45
g46
s(I5
I65536
tp132
g3
(g7
S'\x00\x00\x80\xaaV\x99\x9c>'
p133
tp134
Rp135
s(I4
I65536
tp136
g3
(g7
S'\x00\x80\xc9\x91\x8bP\xe3>'
p137
tp138
Rp139
sg55
S'MLSDC'
p140
s(I5
I32768
tp141
g3
(g7
S'\x00\x00\x9dTy\x9f\xe6>'
p142
tp143
Rp144
s(I1
I16384
tp145
g3
(g7
S'\x9c6z\x8e\x9f\xb2\xd1?'
p146
tp147
Rp148
s(I5
I16384
tp149
g3
(g7
S'\x00H\xad-\x10\xf4+?'
p150
tp151
Rp152
s(I1
I32768
tp153
g3
(g7
S'\xf8\x16\xa7\xae@x\xc2?'
p154
tp155
Rp156
s(I1
I131072
tp157
g3
(g7
S'\xe8\xaf\x87\x8av\xd0\xa2?'
p158
tp159
Rp160
sg77
g78
s(I5
I131072
tp161
g3
(g7
S'\x00\x00\x00\xf9\x99\\Q>'
p162
tp163
Rp164
s(I2
I65536
tp165
g3
(g7
S'\x00\x949?@\x85h?'
p166
tp167
Rp168
s(I2
I131072
tp169
g3
(g7
S'\x00<\xfep<hJ?'
p170
tp171
Rp172
s(I3
I32768
tp173
g3
(g7
S'\x00Xb\xe2\xb9)S?'
p174
tp175
Rp176
sa.