(lp0
(dp1
<<<<<<< HEAD
I4096
=======
(I2
I8192
tp2
>>>>>>> changed some stuff (mainly for auzinger and vanderpol)
cnumpy.core.multiarray
scalar
p2
(cnumpy
dtype
p3
(S'f8'
p4
I0
I1
tp5
Rp6
(I3
S'<'
p7
NNNI-1
I-1
I0
<<<<<<< HEAD
tp8
bS'\x00\x00\x00\x00\x00HQ='
p9
tp10
Rp11
sI8192
g2
(g6
S'\x00\x00\x00\x00\x00`\x11='
p12
tp13
Rp14
s(I9
=======
tp9
<<<<<<< HEAD
bS'.\xc2dp\x04[F?'
=======
bS'*Z\x91\xc5x6\x91>'
>>>>>>> changed png to pdf format for auzinger
p10
tp11
Rp12
s(I5
I8192
tp13
g3
(g7
<<<<<<< HEAD
S'\xe3\x9aN\x1d\xc2\xf8=>'
=======
S'y[0\x8c\xfan\xe9='
>>>>>>> changed png to pdf format for auzinger
p14
tp15
Rp16
<<<<<<< HEAD
<<<<<<< HEAD
s(I4
>>>>>>> changed boundaries for allencahn (and init_val)
I16384
tp15
g2
(g6
S"4S\x82.\xc9x'="
p16
=======
s(I1
I262144
>>>>>>> changed some stuff (mainly for auzinger and vanderpol)
=======
s(I3
I8192
>>>>>>> changed heat1d results (for master-thesis chapter 3)
tp17
<<<<<<< HEAD
Rp18
sI16384
g2
(g6
S'\x00\x00\x00\x00\x00\x00\xd6<'
p19
tp20
Rp21
s(I7
I16384
tp22
g2
(g6
S'0pm\xba\xfbx\xb4='
p23
tp24
Rp25
s(I9
I4096
tp26
g2
(g6
S'\xc2\xa2\xa0\xb8\xfd\xc0\xfc='
p27
tp28
Rp29
s(I5
I4096
tp30
g2
(g6
S'N\xad\xe9\xa3\x03\x19\xfd>'
p31
tp32
Rp33
sS'niter_arr'
=======
g3
(g7
<<<<<<< HEAD
S'\r\x08.k\xb6\xc6\xde>'
=======
S'\xd2\x01\xb1/\x9d\xbc\x98?'
>>>>>>> changed png to pdf format for auzinger
p18
tp19
Rp20
s(I1
I2048
tp21
g3
(g7
<<<<<<< HEAD
S'W\xcf\xcc\xae\xb9M\xd5?'
=======
S'dq\x00\xd1o\xee\xa8>'
>>>>>>> changed png to pdf format for auzinger
p22
tp23
Rp24
s(I4
I2048
tp25
g3
(g7
<<<<<<< HEAD
S'Xw\xa4z.\xfa\xf0>'
=======
S'\xd2\x0e1\xd7\x8c\xc3x?'
>>>>>>> changed png to pdf format for auzinger
p26
tp27
Rp28
s(I2
I2048
tp29
g3
(g7
<<<<<<< HEAD
S'\xa0\xd2\x97\x0e\x83\x07\x84?'
=======
S'\x01,\x95\xa8c\xb3\xa8?'
>>>>>>> changed png to pdf format for auzinger
p30
tp31
Rp32
s(I3
I4096
tp33
g3
(g7
<<<<<<< HEAD
<<<<<<< HEAD
<<<<<<< HEAD
S'\xe8\xca?9\xbc\xe6\xf3='
>>>>>>> changed boundaries for allencahn (and init_val)
p34
(lp35
I5
aI7
aI9
aI11
as(I5
I16384
<<<<<<< HEAD
tp36
g2
(g6
S'}\xc3F\x19\xfd\xebj>'
p37
tp38
Rp39
sS'type'
p40
S'SDC'
p41
sI32768
g2
(g6
S'\x00\x00\x00\x00\x00\x00\xc0<'
=======
=======
S'\xb1<\x069\xf4\t<>'
=======
S'\xd9\x9d\x9am\xd7\xdc">'
>>>>>>> changed png to pdf format for auzinger
p34
tp35
Rp36
s(I3
I2097152
>>>>>>> changed some stuff (mainly for auzinger and vanderpol)
tp37
g3
(g7
S'\xd2\x11\x0e\x06\xe2r\xb9='
p38
=======
S'\x0fqu\xfc\x84+\r?'
p34
tp35
Rp36
sS'niter_arr'
p37
(lp38
I1
aI2
aI3
aI4
aI5
as(I5
I4096
>>>>>>> changed heat1d results (for master-thesis chapter 3)
tp39
g3
(g7
<<<<<<< HEAD
<<<<<<< HEAD
<<<<<<< HEAD
S'\xfe\xd2\x18\xfd\x01\x0f"='
>>>>>>> changed boundaries for allencahn (and init_val)
=======
S'\xb07\xd89\x00\x04\x02='
>>>>>>> changed png to pdf format for auzinger
p42
tp43
Rp44
s(I5
I8192
tp45
<<<<<<< HEAD
g2
(g6
S'\xf8*\xb4\xa2\xd9\xa7\xb5>'
=======
g3
(g7
S'\xfa\xef"6\xa7\x1a\x11?'
>>>>>>> changed png to pdf format for auzinger
p46
tp47
<<<<<<< HEAD
Rp48
s(I9
I32768
=======
g3
(g7
S'\xaa\xac\xb1P\x1f\x00\x15='
p48
>>>>>>> changed boundaries for allencahn (and init_val)
tp49
g2
(g6
S'\x12\xe1\x8a\x88Yb\xf1<'
p50
tp51
<<<<<<< HEAD
Rp52
s(I11
I4096
=======
g3
(g7
S'j\x94\x9d|.\x00\x15='
p52
>>>>>>> changed boundaries for allencahn (and init_val)
tp53
g2
(g6
S'\xe0\xe7\x90#\x84\x03\xa6='
p54
tp55
Rp56
s(I11
I8192
tp57
<<<<<<< HEAD
g2
(g6
S'\xa5H\x07IL"f='
=======
g3
(g7
S'M`\n%j|\x1e='
>>>>>>> changed boundaries for allencahn (and init_val)
p58
tp59
Rp60
s(I7
I32768
tp61
<<<<<<< HEAD
g2
(g6
S'h\xabE\xa6.\x98H='
=======
g3
(g7
S"\x0er\xc1\x81\x0e'\xf3>"
>>>>>>> changed boundaries for allencahn (and init_val)
p62
tp63
Rp64
s(I11
I16384
tp65
<<<<<<< HEAD
g2
(g6
S"h`\xd3\x88\x06p'="
p66
tp67
Rp68
sS'nsteps_arr'
p69
(lp70
I4096
aI8192
aI16384
aI32768
as(I7
I4096
=======
=======
S'\xa4\x8c\xb9w\x00\xc8\x06='
p42
=======
S'\x86\xed?o\x9f\x96}>'
p40
tp41
Rp42
s(I4
I8192
>>>>>>> changed heat1d results (for master-thesis chapter 3)
tp43
g3
(g7
S'\xdf;\x8c\x04\xed1u>'
p44
tp45
Rp46
sS'type'
p47
S'SDC'
p48
s(I5
I2048
tp49
g3
(g7
<<<<<<< HEAD
S"'\n\xa5W[\xc5\xbc>"
=======
S'\x90\x11\x81\xad\x942y>'
>>>>>>> changed png to pdf format for auzinger
p50
tp51
Rp52
s(I3
I1024
tp53
g3
(g7
<<<<<<< HEAD
S'\xaad\xf9\x86V\xa6e?'
=======
S' \x0c\xe8\x06\x01UI>'
>>>>>>> changed png to pdf format for auzinger
p54
tp55
Rp56
s(I1
I1024
tp57
g3
(g7
<<<<<<< HEAD
S'\xeb.\xb5\x7f\x08\xd6\xe3?'
p58
tp59
Rp60
s(I4
I4096
=======
S'\x00\xe8%\xb4\\-\x9d='
p60
>>>>>>> changed png to pdf format for auzinger
tp61
g3
(g7
<<<<<<< HEAD
S'Q\xb6O\x9f\xab\x9c\xb3>'
p62
tp63
Rp64
s(I1
I4096
=======
S'\xf4D\xe18B\xfd0?'
p64
>>>>>>> changed png to pdf format for auzinger
tp65
g3
(g7
<<<<<<< HEAD
S'U\x0f\xe3-\xc54\xc6?'
p66
tp67
Rp68
s(I5
I1024
=======
S'\x00O\x8c\\\x1fH\xa3='
p68
>>>>>>> changed png to pdf format for auzinger
tp69
g3
(g7
S'\xb7\xef\xc0O\x17\t\xfb>'
p70
tp71
Rp72
sS'nsteps_arr'
p73
(lp74
I1024
aI2048
aI4096
aI8192
as(I2
I1024
tp75
g3
(g7
<<<<<<< HEAD
S'\x0e+\xf3\xc9h\xa2\xa1?'
=======
S'\xeb\x81\xf4\xa3\xf7#\xe3='
p72
tp73
Rp74
sS'type'
p75
S'SDC'
>>>>>>> changed png to pdf format for auzinger
p76
tp77
<<<<<<< HEAD
Rp78
s(I3
I2048
=======
g3
(g7
S'\xfd\xb7K\xcc\x8b:$='
p78
>>>>>>> changed png to pdf format for auzinger
tp79
g3
(g7
<<<<<<< HEAD
S'"g\x07\x0c\'B:?'
p80
tp81
Rp82
s(I2
I4096
=======
S'\xa20\t\x16"\x92M='
p82
>>>>>>> changed png to pdf format for auzinger
tp83
<<<<<<< HEAD
Rp84
s(I5
I524288
tp85
>>>>>>> changed some stuff (mainly for auzinger and vanderpol)
=======
>>>>>>> changed heat1d results (for master-thesis chapter 3)
g3
(g7
<<<<<<< HEAD
S'\xdct\xe7=\x9f\x88e?'
p84
tp85
Rp86
s(I4
I1024
=======
S'a,\xb3\xf9 \xe8\r='
p86
>>>>>>> changed png to pdf format for auzinger
tp87
g3
(g7
<<<<<<< HEAD
<<<<<<< HEAD
S'Z\x04*\xfc5\xc2\xe9>'
=======
S'\xf6\xe3\x16?\xe30\xd1>'
>>>>>>> changed png to pdf format for auzinger
p90
tp91
Rp92
s(I1
I65536
tp93
g3
(g7
<<<<<<< HEAD
<<<<<<< HEAD
S'ND"m\xd5)\xd3>'
p70
>>>>>>> changed boundaries for allencahn (and init_val)
tp71
g2
(g6
S'\nMj+)\x13\x7f>'
p72
tp73
<<<<<<< HEAD
Rp74
s(I11
I32768
=======
g3
(g7
S'\x94%\x84\xf0\xea+\x93>'
p74
>>>>>>> changed boundaries for allencahn (and init_val)
tp75
g2
(g6
S'S~x/\xbd`\xf1<'
p76
tp77
Rp78
s(I9
I8192
tp79
<<<<<<< HEAD
g2
(g6
S'\xdc\xb2\xd3\xce)\xd7\x80='
=======
g3
(g7
S'@T8G\x02\x0f"='
>>>>>>> changed boundaries for allencahn (and init_val)
p80
tp81
Rp82
s(I7
I8192
tp83
<<<<<<< HEAD
g2
(g6
S'-C\xf3\xfb\xeb$\x1d>'
=======
g3
(g7
S'/\x98\xcf\x06\xcf\xe8\xc3='
>>>>>>> changed boundaries for allencahn (and init_val)
p84
tp85
Rp86
s(I5
I32768
tp87
<<<<<<< HEAD
g2
(g6
S'\x82\x90Uc\xf0O\x1e>'
p88
tp89
Rp90
sa(dp91
I256
g2
(g6
S'\x00\x00\x00\x0c\x94iK>'
=======
=======
S'\xab\xab\n\x9epS\xd2?'
=======
S'\x18\xb7\xad\x19\x05\xa1\xb8?'
>>>>>>> changed png to pdf format for auzinger
p94
tp95
Rp96
s(I1
I524288
tp97
g3
(g7
S'\x98[\x87\x86<\xc1\x88?'
p98
tp99
Rp100
s(I1
I2097152
tp101
g3
(g7
S'\xd2\x13\xe3(\xb5\xc4h?'
p102
tp103
Rp104
s(I3
I524288
tp105
g3
(g7
S'q\x06d\xecLf\x19>'
p106
tp107
Rp108
s(I4
I2097152
tp109
g3
(g7
S'\xbb\xab\x03\xd9H\xcd\xff<'
p110
tp111
Rp112
sS'nsteps_arr'
p113
(lp114
I65536
aI131072
aI262144
aI524288
aI1048576
aI2097152
as(I5
I262144
tp115
g3
(g7
S'\x9e\xaf\xb0@\x82\xe4\x0e='
p116
tp117
Rp118
s(I5
I1048576
tp119
g3
(g7
S'"\xa3\x97Z\x05$\x05='
p120
tp121
Rp122
s(I4
I524288
tp123
g3
(g7
S'\xdba\xf9LOWc='
p124
tp125
Rp126
s(I2
I262144
tp127
g3
(g7
S'\xa6\xf5\xd6Eu)\xf1>'
p128
tp129
Rp130
s(I2
I1048576
tp131
>>>>>>> changed some stuff (mainly for auzinger and vanderpol)
=======
S'v\x98\xad\x11\xae^*?'
p88
tp89
Rp90
s(I1
I8192
tp91
>>>>>>> changed heat1d results (for master-thesis chapter 3)
g3
(g7
<<<<<<< HEAD
S'\xeaX\xc8\xd8\xce\xaf\xb6?'
p92
tp93
Rp94
sa(dp95
=======
S'2W\xcc\xf9\x9b4\xb1>'
p132
tp133
Rp134
sa(dp135
>>>>>>> changed png to pdf format for auzinger
(I2
I8192
tp96
g3
(g7
<<<<<<< HEAD
<<<<<<< HEAD
S'\xb6\x9a\xee\x89\xec\xcf\xa9>'
=======
S'2Z\x91\xc5x6\x91>'
>>>>>>> changed png to pdf format for auzinger
p137
tp138
Rp139
s(I3
I1048576
tp140
g3
(g7
<<<<<<< HEAD
<<<<<<< HEAD
S'\x0f#b\xc49\x8e(='
>>>>>>> changed boundaries for allencahn (and init_val)
p92
tp93
Rp94
sI1024
g2
(g6
S'\x00\x00\x00\x00@F\xcc='
p95
tp96
<<<<<<< HEAD
Rp97
sI512
g2
(g6
S'\x00\x00\x00@\xd7\xfb\x0b>'
p98
tp99
Rp100
s(I11
I2048
tp101
g2
(g6
S"p\xbb:\x05\\'\xc1="
p102
tp103
Rp104
s(I9
I256
tp105
g2
(g6
S'c\xf25H\x90\x8b\x80>'
p106
tp107
Rp108
s(I9
I1024
tp109
g2
(g6
S'\xce\xed\x00\x16\xaa\x10\x01>'
p110
tp111
Rp112
s(I7
I512
tp113
g2
(g6
S'\xed\xe3\x1fM\x8e\xe9@>'
p114
tp115
Rp116
sg34
g35
s(I5
I1024
tp117
g2
(g6
S'\xcc\xc1\x98\x0e&wG>'
p118
tp119
Rp120
s(I11
I1024
tp121
g2
(g6
S'f\x04\x7f\x00\xaa\x10\x01>'
p122
tp123
Rp124
sg40
g41
s(I11
I256
tp125
g2
(g6
S'\xb2&l\xc3{\x8b\x80>'
p126
tp127
Rp128
s(I5
I2048
tp129
g2
(g6
S'\x0f#(s\xcb\x01\xfb='
p130
tp131
Rp132
s(I5
I512
tp133
g2
(g6
S'tI\xf8\x03,\x83\x92>'
p134
tp135
Rp136
sI2048
g2
(g6
S'\x00\x00\x00\x00@l\x8c='
p137
tp138
Rp139
s(I9
I2048
tp140
g2
(g6
S"p\xbb:\x05\\'\xc1="
=======
S'y[0\x8c\xfan\xe9='
>>>>>>> changed png to pdf format for auzinger
p141
tp142
Rp143
s(I11
I512
tp144
<<<<<<< HEAD
g2
(g6
S'Z^\x98$\xc2\xe3@>'
=======
g3
(g7
S'\xf2\x01\xb1/\x9d\xbc\x98?'
>>>>>>> changed png to pdf format for auzinger
p145
tp146
Rp147
s(I9
I512
tp148
<<<<<<< HEAD
g2
(g6
S'%jkO\xc3\xe3@>'
=======
g3
(g7
S'dq\x10\xd1o\xee\xa8>'
>>>>>>> changed png to pdf format for auzinger
p149
tp150
Rp151
s(I7
I2048
tp152
<<<<<<< HEAD
g2
(g6
S'\x87"\xeb\xec\x8f\'\xc1='
=======
g3
(g7
S'\xd2\x0e1\xd7\x8c\xc3x?'
>>>>>>> changed png to pdf format for auzinger
p153
tp154
Rp155
sg69
(lp156
I256
aI512
aI1024
aI2048
as(I7
I256
tp157
g2
(g6
S'\x91\xb4@g:\xa1\x80>'
=======
=======
S'\x9e\x82{\xf5\x87\x10\x03>'
p141
tp142
Rp143
s(I1
<<<<<<< HEAD
I262144
tp144
>>>>>>> changed some stuff (mainly for auzinger and vanderpol)
=======
S'\xde\x8d\xc6\xe9\xc7\x8dL?'
p97
tp98
Rp99
s(I5
I8192
tp100
>>>>>>> changed heat1d results (for master-thesis chapter 3)
g3
(g7
S'\xee5s%\xfb\xf9=>'
p101
tp102
Rp103
=======
I131072
tp156
g3
(g7
S'\x01,\x95\xa8c\xb3\xa8?'
p157
tp158
Rp159
s(I4
I65536
tp160
g3
(g7
S'l\x1d\x9bm\xd7\xdc">'
p161
tp162
Rp163
>>>>>>> changed png to pdf format for auzinger
s(I3
I8192
tp104
g3
(g7
<<<<<<< HEAD
S'\xd8\xabZ\x07\xca\xa3\xe3>'
p105
tp106
Rp107
s(I1
I2048
tp108
g3
(g7
S'\xbc\xc6w\x01\x9c\xda\xd5?'
p109
tp110
Rp111
s(I4
I2048
tp112
g3
(g7
S'Y\xe8\xfd\x10\xcb<\xf5>'
p113
tp114
Rp115
s(I2
I2048
tp116
g3
(g7
S'\xddTX]\xa78\x89?'
p117
tp118
Rp119
=======
S'\xb7\x11\x12\x06\xe2r\xb9='
p165
tp166
Rp167
s(I5
I2097152
tp168
g3
(g7
S'\xb07\xd89\x00\x04\x02='
p169
tp170
Rp171
s(I2
I131072
tp172
g3
(g7
S'\xfa\xef"6\xa7\x1a\x11?'
p173
tp174
Rp175
s(I3
I131072
tp176
g3
(g7
S'\x8f\x13\x81\xad\x942y>'
p177
tp178
Rp179
>>>>>>> changed png to pdf format for auzinger
s(I3
I4096
tp120
g3
(g7
<<<<<<< HEAD
S'\xdb\x9e\xe8\xb4\xb0s\x12?'
p121
tp122
Rp123
sg37
g38
s(I5
I4096
tp124
g3
(g7
S'\x06\xd7\x14N\x90\x99}>'
p125
tp126
Rp127
=======
S' \x0c(\x07\x01UI>'
p181
tp182
Rp183
sg57
g58
s(I5
I65536
tp184
g3
(g7
S't\x0e%\xb5\\-\x9d='
p185
tp186
Rp187
s(I2
I65536
tp188
g3
(g7
S'\xf5D\xe18B\xfd0?'
p189
tp190
Rp191
s(I4
I262144
tp192
g3
(g7
S'\x00O\x8c\\\x1fH\xa3='
p193
tp194
Rp195
>>>>>>> changed png to pdf format for auzinger
s(I4
I8192
tp128
g3
(g7
<<<<<<< HEAD
S'\xf5x{\xd4\x039{>'
p129
tp130
Rp131
sg47
S'MLSDC'
p132
=======
S'\x9f\x83\xf0\xa3\xf7#\xe3='
p197
tp198
Rp199
sg75
S'MLSDC'
p200
s(I4
I1048576
tp201
g3
(g7
S'\xcaJK\xd4\x8b:$='
p202
tp203
Rp204
>>>>>>> changed png to pdf format for auzinger
s(I5
I2048
tp133
g3
(g7
<<<<<<< HEAD
S'\x02\xc8\xe4\xd3\xe5\xca\xbc>'
p134
tp135
Rp136
s(I3
I1024
tp137
g3
(g7
S')\xc4\xf0\xc8N\xa8j?'
p138
tp139
Rp140
s(I1
I1024
tp141
g3
(g7
S"\xf0'h\xe7\xa0/\xe4?"
p142
tp143
Rp144
s(I4
I4096
tp145
g3
(g7
S'd!m\xed\x1b\x08\xb9>'
p146
tp147
Rp148
=======
S'\xa20\t\x16"\x92M='
p206
tp207
Rp208
s(I5
I524288
tp209
g3
(g7
S'a,\xb3\xf9 \xe8\r='
p210
tp211
Rp212
s(I2
I524288
tp213
g3
(g7
S'\xf6\xe3\x16?\xe30\xd1>'
p214
tp215
Rp216
s(I1
I65536
tp217
g3
(g7
S'\x14\xb7\xad\x19\x05\xa1\xb8?'
p218
tp219
Rp220
>>>>>>> changed png to pdf format for auzinger
s(I1
I4096
tp149
g3
(g7
<<<<<<< HEAD
S'\x9beS$\x84\xcb\xc6?'
p150
tp151
Rp152
s(I5
I1024
tp153
g3
(g7
S'\xe8=\xc6\\\xbb\x15\xfb>'
p154
tp155
Rp156
sg73
g74
s(I2
I1024
tp157
g3
(g7
<<<<<<< HEAD
<<<<<<< HEAD
S'\x00\x1c\xd2\x17\x15HK?'
>>>>>>> changed boundaries for allencahn (and init_val)
p158
tp159
Rp160
s(I5
I256
tp161
<<<<<<< HEAD
g2
(g6
S'#\xb4\x9cw}\xea\xd8>'
=======
g3
(g7
S'l\xa7t\xc1\xc5\x9d\xd2='
>>>>>>> changed boundaries for allencahn (and init_val)
p162
tp163
Rp164
s(I7
I1024
tp165
<<<<<<< HEAD
g2
(g6
S'R3\x89\xe1\xb9\x11\x01>'
p166
tp167
Rp168
=======
=======
S'"\xba\xdc5\x9c\xc2\x07='
=======
S'\x98[\x87\x86<\xc1\x88?'
p222
tp223
Rp224
s(I1
I2097152
tp225
g3
(g7
S'\xd2\x13\xe3(\xb5\xc4h?'
p226
tp227
Rp228
s(I3
I524288
tp229
g3
(g7
S't\xe6c\xecLf\x19>'
p230
tp231
Rp232
s(I4
I2097152
tp233
g3
(g7
S'\xbb\xab\x03\xd9H\xcd\xff<'
>>>>>>> changed png to pdf format for auzinger
p234
tp235
Rp236
sg113
g114
s(I5
I262144
tp237
=======
S'f\x83\x03\x11\xf4\xa9\xa5?'
p158
tp159
Rp160
s(I3
I2048
tp161
>>>>>>> changed heat1d results (for master-thesis chapter 3)
g3
(g7
<<<<<<< HEAD
S'4\xbej\xed\xd7m@?'
p162
tp163
Rp164
s(I2
I4096
tp165
g3
(g7
S'\x07\xbcmL\xdb]k?'
p166
tp167
Rp168
=======
S'bh\x95\xc0\x82\xe4\x0e='
p238
tp239
Rp240
s(I5
I1048576
tp241
g3
(g7
S'"\xa3\x97Z\x05$\x05='
p242
tp243
Rp244
>>>>>>> changed png to pdf format for auzinger
s(I4
<<<<<<< HEAD
I524288
tp245
>>>>>>> changed some stuff (mainly for auzinger and vanderpol)
=======
I1024
tp169
>>>>>>> changed heat1d results (for master-thesis chapter 3)
g3
(g7
<<<<<<< HEAD
S'\xc8\x8f\x1a\xc4\xd6\xab/?'
p170
tp171
Rp172
s(I1
I8192
tp173
g3
(g7
<<<<<<< HEAD
<<<<<<< HEAD
S'}$\x93P\xa15\xea>'
p174
tp175
Rp176
>>>>>>> changed boundaries for allencahn (and init_val)
=======
S'b\xd1;PY\xcb\xc9>'
=======
S'\xdba\xf9LOWc='
p246
tp247
Rp248
s(I2
I262144
tp249
g3
(g7
S'\xa6\xf5\xd6Eu)\xf1>'
p250
tp251
Rp252
s(I2
I1048576
tp253
g3
(g7
S'2W\xcc\xf9\x9b4\xb1>'
>>>>>>> changed png to pdf format for auzinger
p254
tp255
Rp256
>>>>>>> changed some stuff (mainly for auzinger and vanderpol)
=======
S'f\xdb \xa3\xdfK\xb7?'
p174
tp175
Rp176
>>>>>>> changed heat1d results (for master-thesis chapter 3)
sa.