(lp0
(dp1
(I2
I32768
tp2
cnumpy.core.multiarray
scalar
p3
(cnumpy
dtype
p4
(S'f8'
p5
I0
I1
tp6
Rp7
(I3
S'<'
p8
NNNI-1
I-1
I0
tp9
bS'@\xacwv\x05\xa6\x87?'
p10
tp11
Rp12
s(I3
I262144
tp13
g3
(g7
S'\x00\xa8F}8\xdb\x15?'
p14
tp15
Rp16
s(I1
I131072
tp17
g3
(g7
S'P\xd0\xe2\x07C\x1e\x9b?'
p18
tp19
Rp20
s(I4
I32768
tp21
g3
(g7
S'\x00\xefs\xc4\x1b\x10P?'
p22
tp23
Rp24
s(I3
I65536
tp25
g3
(g7
S'\x00\x95\xe1\xe2\xff\xb0X?'
p26
tp27
Rp28
s(I1
I262144
tp29
g3
(g7
S' \xcb\x15\xed\xdal\x88?'
p30
tp31
Rp32
s(I4
I262144
tp33
g3
(g7
S'\x00\x80\xcb\xad\xa7\\\xdc>'
p34
tp35
Rp36
s(I2
I65536
tp37
g3
(g7
S'\x00)\xe2\xe0NF\x80?'
p38
tp39
Rp40
s(I3
I32768
tp41
g3
(g7
S'\x80\x11>\xb4b\x10j?'
p42
tp43
Rp44
s(I3
I131072
tp45
g3
(g7
S'\x00dO\xed\x15\xd48?'
p46
tp47
Rp48
sS'niter_arr'
p49
(lp50
I1
aI2
aI3
aI4
aI5
as(I5
I32768
tp51
g3
(g7
S'\x008y\xef\xf9\xbe1?'
p52
tp53
Rp54
s(I4
I524288
tp55
g3
(g7
S'\x00\x00\xa8z{\xc3\xa4>'
p56
tp57
Rp58
s(I4
I131072
tp59
g3
(g7
S'\x00`\xda\x0c++\x13?'
p60
tp61
Rp62
sS'type'
p63
S'SDC'
p64
s(I5
I65536
tp65
g3
(g7
S'\x00\x10U\xc5\x94\xc4"?'
p66
tp67
Rp68
s(I5
I524288
tp69
g3
(g7
S'\x00\x00\xc0Q\xca\xe7a>'
p70
tp71
Rp72
s(I2
I524288
tp73
g3
(g7
S'\x00x\x14x\xf5\xb6*?'
p74
tp75
Rp76
s(I1
I65536
tp77
g3
(g7
S'\xf0\x17s\xb7c7\xaa?'
p78
tp79
Rp80
s(I4
I65536
tp81
g3
(g7
S'\x00e\xe7,\\kA?'
p82
tp83
Rp84
s(I1
I524288
tp85
g3
(g7
S'`\xb8\n\\\xb0 q?'
p86
tp87
Rp88
s(I3
I524288
tp89
g3
(g7
S'\x00`\x1c\xdd\xed\x83\xe6>'
p90
tp91
Rp92
sS'nsteps_arr'
p93
(lp94
I32768
aI65536
aI131072
aI262144
aI524288
as(I5
I262144
tp95
g3
(g7
S'\x00\x004\n\x08\x99\xa5>'
p96
tp97
Rp98
s(I5
I131072
tp99
g3
(g7
S'\x00\x10\x14\xe5\xe5U\xf5>'
p100
tp101
Rp102
s(I2
I131072
tp103
g3
(g7
S'\x80.\xb8\x08\xe3\x7fk?'
p104
tp105
Rp106
s(I1
I32768
tp107
g3
(g7
S"D\xe7'\x00d\x07\xb4?"
p108
tp109
Rp110
s(I2
I262144
tp111
g3
(g7
S'\x00\xfd\xfa\xf5\xe5\x10N?'
p112
tp113
Rp114
sa(dp115
(I2
I32768
tp116
g3
(g7
S'\x00\xe6\xc9\xadD\x83\x83?'
p117
tp118
Rp119
s(I3
I262144
tp120
g3
(g7
S'\x00\xfc\xaf\xa4\x11\x9c%?'
p121
tp122
Rp123
s(I1
I131072
tp124
g3
(g7
S'\xc0\x0b\x884Y\x1e\x9b?'
p125
tp126
Rp127
s(I4
I32768
tp128
g3
(g7
S'\x00}\x9b\x17\xc1\x97G?'
p129
tp130
Rp131
s(I3
I65536
tp132
g3
(g7
S'\x00l\x81\xa2\xfe&Y?'
p133
tp134
Rp135
s(I1
I262144
tp136
g3
(g7
S'`g\xcfl\xe8l\x88?'
p137
tp138
Rp139
s(I4
I262144
tp140
g3
(g7
S'\x00\xc0\x9b\x85\x95\xce\xf2>'
p141
tp142
Rp143
s(I2
I65536
tp144
g3
(g7
S'\xc0\x8d\x9c\n\xb1o\x83?'
p145
tp146
Rp147
s(I3
I32768
tp148
g3
(g7
S"\x80'\xdf\x97\xe9V_?"
p149
tp150
Rp151
s(I3
I131072
tp152
g3
(g7
S'\x00\xa4Xp_\xebG?'
p153
tp154
Rp155
sg49
g50
s(I5
I32768
tp156
g3
(g7
S'\x00\xc4\xa5;\x9dn)?'
p157
tp158
Rp159
s(I4
I524288
tp160
g3
(g7
S'\x00\x00!\tw\xb8\xb9>'
p161
tp162
Rp163
s(I4
I131072
tp164
g3
(g7
S'\x00`hGpo\x17?'
p165
tp166
Rp167
sg63
S'MLSDC'
p168
s(I5
I65536
tp169
g3
(g7
S'\x00\x98)cA\x96\x1a?'
p170
tp171
Rp172
s(I5
I524288
tp173
g3
(g7
S'\x00\x00`b6c{>'
p174
tp175
Rp176
s(I2
I524288
tp177
g3
(g7
S'\x00\x82\x0b\x86\xe0\xc33?'
p178
tp179
Rp180
s(I1
I65536
tp181
g3
(g7
S'8\xbdCs}7\xaa?'
p182
tp183
Rp184
s(I4
I65536
tp185
g3
(g7
S'\x008\xdf,HQ>?'
p186
tp187
Rp188
s(I1
I524288
tp189
g3
(g7
S'@\xd0U\xfa\xb7 q?'
p190
tp191
Rp192
s(I3
I524288
tp193
g3
(g7
S'\x00P\x11 \x85\x04\xf6>'
p194
tp195
Rp196
sg93
g94
s(I5
I262144
tp197
g3
(g7
S'\x00\x00\xfe\xd8\x8a/\xba>'
p198
tp199
Rp200
s(I5
I131072
tp201
g3
(g7
S'\x00\x80Q\xb8\x8f\xe3\xf9>'
p202
tp203
Rp204
s(I2
I131072
tp205
g3
(g7
S'\xc0_\xde\x86\xd0\xcfr?'
p206
tp207
Rp208
s(I1
I32768
tp209
g3
(g7
S'HS\xb3W\x89\x07\xb4?'
p210
tp211
Rp212
s(I2
I262144
tp213
g3
(g7
S'\x80\xa0W,\x9f\x91U?'
p214
tp215
Rp216
sa.