(lp0
(dp1
I4096
cnumpy.core.multiarray
scalar
p2
(cnumpy
dtype
p3
(S'f8'
p4
I0
I1
tp5
Rp6
(I3
S'<'
p7
NNNI-1
I-1
I0
<<<<<<< HEAD
tp8
bS'\x00\x00\x00\x00\x00HQ='
p9
tp10
Rp11
sI8192
g2
(g6
S'\x00\x00\x00\x00\x00`\x11='
p12
tp13
Rp14
s(I9
=======
tp9
bS'\x8f\xa7\xc34\x84\xe2#>'
p10
tp11
Rp12
s(I3
I65536
tp13
g3
(g7
S'@\x9b\x1e\xcd\x1f\xe8\x14='
p14
tp15
Rp16
s(I4
>>>>>>> changed boundaries for allencahn (and init_val)
I16384
tp15
g2
(g6
S"4S\x82.\xc9x'="
p16
tp17
<<<<<<< HEAD
Rp18
sI16384
g2
(g6
S'\x00\x00\x00\x00\x00\x00\xd6<'
p19
tp20
Rp21
s(I7
I16384
tp22
g2
(g6
S'0pm\xba\xfbx\xb4='
p23
tp24
Rp25
s(I9
I4096
tp26
g2
(g6
S'\xc2\xa2\xa0\xb8\xfd\xc0\xfc='
p27
tp28
Rp29
s(I5
I4096
tp30
g2
(g6
S'N\xad\xe9\xa3\x03\x19\xfd>'
p31
tp32
Rp33
sS'niter_arr'
=======
g3
(g7
S'C\x91\x159N4$='
p18
tp19
Rp20
s(I4
I32768
tp21
g3
(g7
S'2\xcd\xaa\xeal\xbc\x1e='
p22
tp23
Rp24
s(I1
I65536
tp25
g3
(g7
S'\xf7\x91\x82\x0e9+\xb3>'
p26
tp27
Rp28
s(I4
I131072
tp29
g3
(g7
S'@T8G\x02\x0f"='
p30
tp31
Rp32
s(I2
I32768
tp33
g3
(g7
S'\xe8\xca?9\xbc\xe6\xf3='
>>>>>>> changed boundaries for allencahn (and init_val)
p34
(lp35
I5
aI7
aI9
aI11
as(I5
I16384
<<<<<<< HEAD
tp36
g2
(g6
S'}\xc3F\x19\xfd\xebj>'
p37
tp38
Rp39
sS'type'
p40
S'SDC'
p41
sI32768
g2
(g6
S'\x00\x00\x00\x00\x00\x00\xc0<'
=======
tp37
g3
(g7
S'>\xc2N\xe8\xa9 T='
p38
tp39
Rp40
s(I3
I131072
tp41
g3
(g7
S'\xfe\xd2\x18\xfd\x01\x0f"='
>>>>>>> changed boundaries for allencahn (and init_val)
p42
tp43
Rp44
s(I5
I8192
tp45
g2
(g6
S'\xf8*\xb4\xa2\xd9\xa7\xb5>'
p46
tp47
<<<<<<< HEAD
Rp48
s(I9
I32768
=======
g3
(g7
S'\xaa\xac\xb1P\x1f\x00\x15='
p48
>>>>>>> changed boundaries for allencahn (and init_val)
tp49
g2
(g6
S'\x12\xe1\x8a\x88Yb\xf1<'
p50
tp51
<<<<<<< HEAD
Rp52
s(I11
I4096
=======
g3
(g7
S'j\x94\x9d|.\x00\x15='
p52
>>>>>>> changed boundaries for allencahn (and init_val)
tp53
g2
(g6
S'\xe0\xe7\x90#\x84\x03\xa6='
p54
tp55
Rp56
s(I11
I8192
tp57
<<<<<<< HEAD
g2
(g6
S'\xa5H\x07IL"f='
=======
g3
(g7
S'M`\n%j|\x1e='
>>>>>>> changed boundaries for allencahn (and init_val)
p58
tp59
Rp60
s(I7
I32768
tp61
<<<<<<< HEAD
g2
(g6
S'h\xabE\xa6.\x98H='
=======
g3
(g7
S"\x0er\xc1\x81\x0e'\xf3>"
>>>>>>> changed boundaries for allencahn (and init_val)
p62
tp63
Rp64
s(I11
I16384
tp65
<<<<<<< HEAD
g2
(g6
S"h`\xd3\x88\x06p'="
p66
tp67
Rp68
sS'nsteps_arr'
p69
(lp70
I4096
aI8192
aI16384
aI32768
as(I7
I4096
=======
g3
(g7
S'"4\xf5O\x1d\xb3#='
p66
tp67
Rp68
s(I1
I32768
tp69
g3
(g7
S'ND"m\xd5)\xd3>'
p70
>>>>>>> changed boundaries for allencahn (and init_val)
tp71
g2
(g6
S'\nMj+)\x13\x7f>'
p72
tp73
<<<<<<< HEAD
Rp74
s(I11
I32768
=======
g3
(g7
S'\x94%\x84\xf0\xea+\x93>'
p74
>>>>>>> changed boundaries for allencahn (and init_val)
tp75
g2
(g6
S'S~x/\xbd`\xf1<'
p76
tp77
Rp78
s(I9
I8192
tp79
<<<<<<< HEAD
g2
(g6
S'\xdc\xb2\xd3\xce)\xd7\x80='
=======
g3
(g7
S'@T8G\x02\x0f"='
>>>>>>> changed boundaries for allencahn (and init_val)
p80
tp81
Rp82
s(I7
I8192
tp83
<<<<<<< HEAD
g2
(g6
S'-C\xf3\xfb\xeb$\x1d>'
=======
g3
(g7
S'/\x98\xcf\x06\xcf\xe8\xc3='
>>>>>>> changed boundaries for allencahn (and init_val)
p84
tp85
Rp86
s(I5
I32768
tp87
<<<<<<< HEAD
g2
(g6
S'\x82\x90Uc\xf0O\x1e>'
p88
tp89
Rp90
sa(dp91
I256
g2
(g6
S'\x00\x00\x00\x0c\x94iK>'
=======
g3
(g7
S'Z\xecw-t\xf0\x93='
p88
tp89
Rp90
s(I3
I32768
tp91
g3
(g7
S'\x0f#b\xc49\x8e(='
>>>>>>> changed boundaries for allencahn (and init_val)
p92
tp93
Rp94
sI1024
g2
(g6
S'\x00\x00\x00\x00@F\xcc='
p95
tp96
<<<<<<< HEAD
Rp97
sI512
g2
(g6
S'\x00\x00\x00@\xd7\xfb\x0b>'
p98
tp99
Rp100
s(I11
I2048
tp101
g2
(g6
S"p\xbb:\x05\\'\xc1="
p102
tp103
Rp104
s(I9
I256
tp105
g2
(g6
S'c\xf25H\x90\x8b\x80>'
p106
tp107
Rp108
s(I9
I1024
tp109
g2
(g6
S'\xce\xed\x00\x16\xaa\x10\x01>'
p110
tp111
Rp112
s(I7
I512
tp113
g2
(g6
S'\xed\xe3\x1fM\x8e\xe9@>'
p114
tp115
Rp116
sg34
g35
s(I5
I1024
tp117
g2
(g6
S'\xcc\xc1\x98\x0e&wG>'
p118
tp119
Rp120
s(I11
I1024
tp121
g2
(g6
S'f\x04\x7f\x00\xaa\x10\x01>'
p122
tp123
Rp124
sg40
g41
s(I11
I256
tp125
g2
(g6
S'\xb2&l\xc3{\x8b\x80>'
p126
tp127
Rp128
s(I5
I2048
tp129
g2
(g6
S'\x0f#(s\xcb\x01\xfb='
p130
tp131
Rp132
s(I5
I512
tp133
g2
(g6
S'tI\xf8\x03,\x83\x92>'
p134
tp135
Rp136
sI2048
g2
(g6
S'\x00\x00\x00\x00@l\x8c='
p137
tp138
Rp139
s(I9
I2048
tp140
g2
(g6
S"p\xbb:\x05\\'\xc1="
p141
tp142
Rp143
s(I11
I512
tp144
g2
(g6
S'Z^\x98$\xc2\xe3@>'
p145
tp146
Rp147
s(I9
I512
tp148
g2
(g6
S'%jkO\xc3\xe3@>'
p149
tp150
Rp151
s(I7
I2048
tp152
g2
(g6
S'\x87"\xeb\xec\x8f\'\xc1='
p153
tp154
Rp155
sg69
(lp156
I256
aI512
aI1024
aI2048
as(I7
I256
tp157
g2
(g6
S'\x91\xb4@g:\xa1\x80>'
=======
g3
(g7
S'\xaf\xa3\xf9\xe6jfJ?'
p97
tp98
Rp99
s(I3
I65536
tp100
g3
(g7
S'\r\x0f__\x83*\xb8>'
p101
tp102
Rp103
s(I4
I16384
tp104
g3
(g7
S'\xce\x012\x13\xbc\x10\xe2>'
p105
tp106
Rp107
s(I4
I32768
tp108
g3
(g7
S'\x039l\x88\x89\x88\xaf>'
p109
tp110
Rp111
s(I1
I65536
tp112
g3
(g7
S'\x1c/*\xf6$\x8ai?'
p113
tp114
Rp115
s(I4
I131072
tp116
g3
(g7
S'\xd4f\x18\x92\xf07)>'
p117
tp118
Rp119
s(I2
I32768
tp120
g3
(g7
S'%\x0e\xfd\xb3\x87\xe7*?'
p121
tp122
Rp123
s(I3
I16384
tp124
g3
(g7
S'\xd6\xbe\x9eezm\x16?'
p125
tp126
Rp127
s(I3
I131072
tp128
g3
(g7
S'\tR$n\xd9w\x80>'
p129
tp130
Rp131
sg45
g46
s(I5
I65536
tp132
g3
(g7
S"8D2\xca\xc4\x94'>"
p133
tp134
Rp135
s(I4
I65536
tp136
g3
(g7
S'D$#\xb9Qxo>'
p137
tp138
Rp139
sg55
S'MLSDC'
p140
s(I5
I32768
tp141
g3
(g7
S'j\xc9\xf9\xb8\xdd\x8dr>'
p142
tp143
Rp144
s(I1
I16384
tp145
g3
(g7
S'\x08\xf8.NN\x9a\xa1?'
p146
tp147
Rp148
s(I5
I16384
tp149
g3
(g7
S'\xd0\x1d\x8d\x19N\xc1\xb2>'
p150
tp151
Rp152
s(I1
I32768
tp153
g3
(g7
S'Wqc\x93\xe3j\x86?'
p154
tp155
Rp156
s(I1
I131072
tp157
g3
(g7
S'\x00\x1c\xd2\x17\x15HK?'
>>>>>>> changed boundaries for allencahn (and init_val)
p158
tp159
Rp160
s(I5
I256
tp161
<<<<<<< HEAD
g2
(g6
S'#\xb4\x9cw}\xea\xd8>'
=======
g3
(g7
S'l\xa7t\xc1\xc5\x9d\xd2='
>>>>>>> changed boundaries for allencahn (and init_val)
p162
tp163
Rp164
s(I7
I1024
tp165
<<<<<<< HEAD
g2
(g6
S'R3\x89\xe1\xb9\x11\x01>'
p166
tp167
Rp168
=======
g3
(g7
S'\x98\x8c\xc1\x18\xa0\x13\x04?'
p166
tp167
Rp168
s(I2
I131072
tp169
g3
(g7
S'\x96a76\x86\xdc\xd8>'
p170
tp171
Rp172
s(I3
I32768
tp173
g3
(g7
S'}$\x93P\xa15\xea>'
p174
tp175
Rp176
>>>>>>> changed boundaries for allencahn (and init_val)
sa.