(lp0
(dp1
(I2
I2097152
tp2
cnumpy.core.multiarray
scalar
p3
(cnumpy
dtype
p4
(S'f8'
p5
I0
I1
tp6
Rp7
(I3
S'<'
p8
NNNI-1
I-1
I0
tp9
bS'*Z\x91\xc5x6\x91>'
p10
tp11
Rp12
s(I3
I1048576
tp13
g3
(g7
S'y[0\x8c\xfan\xe9='
p14
tp15
Rp16
s(I1
I262144
tp17
g3
(g7
S'\xd2\x01\xb1/\x9d\xbc\x98?'
p18
tp19
Rp20
s(I3
I65536
tp21
g3
(g7
S'dq\x00\xd1o\xee\xa8>'
p22
tp23
Rp24
s(I1
I1048576
tp25
g3
(g7
S'\xd2\x0e1\xd7\x8c\xc3x?'
p26
tp27
Rp28
s(I1
I131072
tp29
g3
(g7
S'\x01,\x95\xa8c\xb3\xa8?'
p30
tp31
Rp32
s(I4
I65536
tp33
g3
(g7
S'\xd9\x9d\x9am\xd7\xdc">'
p34
tp35
Rp36
s(I3
I2097152
tp37
g3
(g7
S'\xd2\x11\x0e\x06\xe2r\xb9='
p38
tp39
Rp40
s(I5
I2097152
tp41
g3
(g7
S'\xb07\xd89\x00\x04\x02='
p42
tp43
Rp44
s(I2
I131072
tp45
g3
(g7
S'\xfa\xef"6\xa7\x1a\x11?'
p46
tp47
Rp48
s(I3
I131072
tp49
g3
(g7
S'\x90\x11\x81\xad\x942y>'
p50
tp51
Rp52
s(I3
I262144
tp53
g3
(g7
S' \x0c\xe8\x06\x01UI>'
p54
tp55
Rp56
sS'niter_arr'
p57
(lp58
I1
aI2
aI3
aI4
aI5
as(I5
I65536
tp59
g3
(g7
S'\x00\xe8%\xb4\\-\x9d='
p60
tp61
Rp62
s(I2
I65536
tp63
g3
(g7
S'\xf4D\xe18B\xfd0?'
p64
tp65
Rp66
s(I4
I262144
tp67
g3
(g7
S'\x00O\x8c\\\x1fH\xa3='
p68
tp69
Rp70
s(I4
I131072
tp71
g3
(g7
S'\xeb\x81\xf4\xa3\xf7#\xe3='
p72
tp73
Rp74
sS'type'
p75
S'SDC'
p76
s(I4
I1048576
tp77
g3
(g7
S'\xfd\xb7K\xcc\x8b:$='
p78
tp79
Rp80
s(I5
I131072
tp81
g3
(g7
S'\xa20\t\x16"\x92M='
p82
tp83
Rp84
s(I5
I524288
tp85
g3
(g7
S'a,\xb3\xf9 \xe8\r='
p86
tp87
Rp88
s(I2
I524288
tp89
g3
(g7
S'\xf6\xe3\x16?\xe30\xd1>'
p90
tp91
Rp92
s(I1
I65536
tp93
g3
(g7
S'\x18\xb7\xad\x19\x05\xa1\xb8?'
p94
tp95
Rp96
s(I1
I524288
tp97
g3
(g7
S'\x98[\x87\x86<\xc1\x88?'
p98
tp99
Rp100
s(I1
I2097152
tp101
g3
(g7
S'\xd2\x13\xe3(\xb5\xc4h?'
p102
tp103
Rp104
s(I3
I524288
tp105
g3
(g7
S'q\x06d\xecLf\x19>'
p106
tp107
Rp108
s(I4
I2097152
tp109
g3
(g7
S'\xbb\xab\x03\xd9H\xcd\xff<'
p110
tp111
Rp112
sS'nsteps_arr'
p113
(lp114
I65536
aI131072
aI262144
aI524288
aI1048576
aI2097152
as(I5
I262144
tp115
g3
(g7
S'\x9e\xaf\xb0@\x82\xe4\x0e='
p116
tp117
Rp118
s(I5
I1048576
tp119
g3
(g7
S'"\xa3\x97Z\x05$\x05='
p120
tp121
Rp122
s(I4
I524288
tp123
g3
(g7
S'\xdba\xf9LOWc='
p124
tp125
Rp126
s(I2
I262144
tp127
g3
(g7
S'\xa6\xf5\xd6Eu)\xf1>'
p128
tp129
Rp130
s(I2
I1048576
tp131
g3
(g7
S'2W\xcc\xf9\x9b4\xb1>'
p132
tp133
Rp134
sa(dp135
(I2
I2097152
tp136
g3
(g7
S'2Z\x91\xc5x6\x91>'
p137
tp138
Rp139
s(I3
I1048576
tp140
g3
(g7
S'y[0\x8c\xfan\xe9='
p141
tp142
Rp143
s(I1
I262144
tp144
g3
(g7
S'\xf2\x01\xb1/\x9d\xbc\x98?'
p145
tp146
Rp147
s(I3
I65536
tp148
g3
(g7
S'dq\x10\xd1o\xee\xa8>'
p149
tp150
Rp151
s(I1
I1048576
tp152
g3
(g7
S'\xd2\x0e1\xd7\x8c\xc3x?'
p153
tp154
Rp155
s(I1
I131072
tp156
g3
(g7
S'\x01,\x95\xa8c\xb3\xa8?'
p157
tp158
Rp159
s(I4
I65536
tp160
g3
(g7
S'l\x1d\x9bm\xd7\xdc">'
p161
tp162
Rp163
s(I3
I2097152
tp164
g3
(g7
S'\xb7\x11\x12\x06\xe2r\xb9='
p165
tp166
Rp167
s(I5
I2097152
tp168
g3
(g7
S'\xb07\xd89\x00\x04\x02='
p169
tp170
Rp171
s(I2
I131072
tp172
g3
(g7
S'\xfa\xef"6\xa7\x1a\x11?'
p173
tp174
Rp175
s(I3
I131072
tp176
g3
(g7
S'\x8f\x13\x81\xad\x942y>'
p177
tp178
Rp179
s(I3
I262144
tp180
g3
(g7
S' \x0c(\x07\x01UI>'
p181
tp182
Rp183
sg57
g58
s(I5
I65536
tp184
g3
(g7
S't\x0e%\xb5\\-\x9d='
p185
tp186
Rp187
s(I2
I65536
tp188
g3
(g7
S'\xf5D\xe18B\xfd0?'
p189
tp190
Rp191
s(I4
I262144
tp192
g3
(g7
S'\x00O\x8c\\\x1fH\xa3='
p193
tp194
Rp195
s(I4
I131072
tp196
g3
(g7
S'\x9f\x83\xf0\xa3\xf7#\xe3='
p197
tp198
Rp199
sg75
S'MLSDC'
p200
s(I4
I1048576
tp201
g3
(g7
S'\xcaJK\xd4\x8b:$='
p202
tp203
Rp204
s(I5
I131072
tp205
g3
(g7
S'\xa20\t\x16"\x92M='
p206
tp207
Rp208
s(I5
I524288
tp209
g3
(g7
S'a,\xb3\xf9 \xe8\r='
p210
tp211
Rp212
s(I2
I524288
tp213
g3
(g7
S'\xf6\xe3\x16?\xe30\xd1>'
p214
tp215
Rp216
s(I1
I65536
tp217
g3
(g7
S'\x14\xb7\xad\x19\x05\xa1\xb8?'
p218
tp219
Rp220
s(I1
I524288
tp221
g3
(g7
S'\x98[\x87\x86<\xc1\x88?'
p222
tp223
Rp224
s(I1
I2097152
tp225
g3
(g7
S'\xd2\x13\xe3(\xb5\xc4h?'
p226
tp227
Rp228
s(I3
I524288
tp229
g3
(g7
S't\xe6c\xecLf\x19>'
p230
tp231
Rp232
s(I4
I2097152
tp233
g3
(g7
S'\xbb\xab\x03\xd9H\xcd\xff<'
p234
tp235
Rp236
sg113
g114
s(I5
I262144
tp237
g3
(g7
S'bh\x95\xc0\x82\xe4\x0e='
p238
tp239
Rp240
s(I5
I1048576
tp241
g3
(g7
S'"\xa3\x97Z\x05$\x05='
p242
tp243
Rp244
s(I4
I524288
tp245
g3
(g7
S'\xdba\xf9LOWc='
p246
tp247
Rp248
s(I2
I262144
tp249
g3
(g7
S'\xa6\xf5\xd6Eu)\xf1>'
p250
tp251
Rp252
s(I2
I1048576
tp253
g3
(g7
S'2W\xcc\xf9\x9b4\xb1>'
p254
tp255
Rp256
sa.