(lp0
(dp1
(I2
I32768
tp2
cnumpy.core.multiarray
scalar
p3
(cnumpy
dtype
p4
(S'f8'
p5
I0
I1
tp6
Rp7
(I3
S'<'
p8
NNNI-1
I-1
I0
tp9
bS'v$\xe1\xafc\xf8\x93?'
p10
tp11
Rp12
s(I3
I262144
tp13
g3
(g7
S'O\xe6\xb5\x08\xb1\xf3\xdc>'
p14
tp15
Rp16
s(I4
I32768
tp17
g3
(g7
S'_c.\xbf\xef\xfb&?'
p18
tp19
Rp20
s(I3
I65536
tp21
g3
(g7
S'\xc5\xc1Ox\x9fa4?'
p22
tp23
Rp24
s(I1
I131072
tp25
g3
(g7
S'\x19\x9e6\x83\xaf\x90\xb4?'
p26
tp27
Rp28
s(I4
I131072
tp29
g3
(g7
S'\x94nC\xaeY*\xb7>'
p30
tp31
Rp32
s(I2
I65536
tp33
g3
(g7
S'\xc8\xe3\xb1\xe4\x0fdy?'
p34
tp35
Rp36
s(I3
I32768
tp37
g3
(g7
S'\x8d\xab\xdf%c\xc2\\?'
p38
tp39
Rp40
s(I3
I131072
tp41
g3
(g7
S'Q\xc0om\xac\x7f\t?'
p42
tp43
Rp44
sS'niter_arr'
p45
(lp46
I1
aI2
aI3
aI4
aI5
as(I5
I65536
tp47
g3
(g7
S'\xfe{\xcf\xedw$\xaf>'
p48
tp49
Rp50
s(I4
I262144
tp51
g3
(g7
S'\xe6C\x18\xa6\x87\x0f{>'
p52
tp53
Rp54
sS'type'
p55
S'SDC'
p56
s(I5
I131072
tp57
g3
(g7
S'\xfb \x93\xd3mJe>'
p58
tp59
Rp60
s(I1
I65536
tp61
g3
(g7
S'\x8d?\xcf8\xa9 \xc3?'
p62
tp63
Rp64
s(I1
I262144
tp65
g3
(g7
S'a\xf6..\xcdi\xa5?'
p66
tp67
Rp68
sS'nsteps_arr'
p69
(lp70
I32768
aI65536
aI131072
aI262144
as(I5
I262144
tp71
g3
(g7
S'wl\xb6R\xa2w\x19>'
p72
tp73
Rp74
s(I2
I131072
tp75
g3
(g7
S'\xfe[\xca\x0f\xb5\xa3]?'
p76
tp77
Rp78
s(I1
I32768
tp79
g3
(g7
S'\xe86\xca\x07J\x02\xd1?'
p80
tp81
Rp82
s(I2
I262144
tp83
g3
(g7
S'\xb7\xb5\xe0:\xd5,@?'
p84
tp85
Rp86
s(I4
I65536
tp87
g3
(g7
S'J_/}\xc5\xa7\xf1>'
p88
tp89
Rp90
s(I5
I32768
tp91
g3
(g7
S'<G\xe5\x18\x12\xa2\xf2>'
p92
tp93
Rp94
sa(dp95
(I2
I32768
tp96
g3
(g7
S'\x9e_jhK\x85\x96?'
p97
tp98
Rp99
s(I3
I262144
tp100
g3
(g7
S'\x18\x08B\xc7\x04<\xdd>'
p101
tp102
Rp103
s(I4
I32768
tp104
g3
(g7
S'\x9bG\xae\xae\x04\x88*?'
p105
tp106
Rp107
s(I3
I65536
tp108
g3
(g7
S'p\xd6\xb2\xafg`5?'
p109
tp110
Rp111
s(I1
I131072
tp112
g3
(g7
S'+Q;JD!\xb7?'
p113
tp114
Rp115
s(I4
I131072
tp116
g3
(g7
S'\xf3xq%\x13n\xb8>'
p117
tp118
Rp119
s(I2
I65536
tp120
g3
(g7
S'\x88)\xed\xe2\xf8.{?'
p121
tp122
Rp123
s(I3
I32768
tp124
g3
(g7
S'\r\xd8\xe1S\xac\x12`?'
p125
tp126
Rp127
s(I3
I131072
tp128
g3
(g7
S'l\xa4\x13R\x02\x06\n?'
p129
tp130
Rp131
sg45
g46
s(I5
I65536
tp132
g3
(g7
S'Qw`!OF\xb1>'
p133
tp134
Rp135
s(I4
I262144
tp136
g3
(g7
S'\xc0\xf4qk\xbf(|>'
p137
tp138
Rp139
sg55
S'MLSDC'
p140
s(I5
I131072
tp141
g3
(g7
S'\x95\xc7!\xff&\xf0f>'
p142
tp143
Rp144
s(I1
I65536
tp145
g3
(g7
S'|\x8e\x1e,$\xd0\xc5?'
p146
tp147
Rp148
s(I1
I262144
tp149
g3
(g7
S'o<\xa6\xea\x8d\xe8\xa7?'
p150
tp151
Rp152
sg69
g70
s(I5
I262144
tp153
g3
(g7
S'\xb8v\xe1\xae\xe3\r\x1b>'
p154
tp155
Rp156
s(I2
I131072
tp157
g3
(g7
S'A\xb2lvT\xf6^?'
p158
tp159
Rp160
s(I1
I32768
tp161
g3
(g7
S'\xd8[k\xed\xb7\xdd\xd3?'
p162
tp163
Rp164
s(I2
I262144
tp165
g3
(g7
S'\x0be\x03\x8e\xf0\xb6@?'
p166
tp167
Rp168
s(I4
I65536
tp169
g3
(g7
S'\xb9\x13\xa0 \xc71\xf3>'
p170
tp171
Rp172
s(I5
I32768
tp173
g3
(g7
S'u\xe0\xb9\x010\xcf\xf5>'
p174
tp175
Rp176
sa.