(lp0
(dp1
(I2
I8388608
tp2
cnumpy.core.multiarray
scalar
p3
(cnumpy
dtype
p4
(S'f8'
p5
I0
I1
tp6
Rp7
(I3
S'<'
p8
NNNI-1
I-1
I0
tp9
bS'\xb9A\xbd\x85\xa7\xe4\x90>'
p10
tp11
Rp12
s(I5
I1048576
tp13
g3
(g7
S'\xcc\xbe\x15\x02*KX='
p14
tp15
Rp16
s(I3
I8388608
tp17
g3
(g7
S'D\x98\x88\xc7\n\xfa\xd7='
p18
tp19
Rp20
s(I1
I1048576
tp21
g3
(g7
S'6\x9bE\xa9\xd2\xe2{?'
p22
tp23
Rp24
s(I1
I2097152
tp25
g3
(g7
S'\xa5hG\x1cL\x0fl?'
p26
tp27
Rp28
s(I1
I4194304
tp29
g3
(g7
S' \xb1f\x98\xbf%\\?'
p30
tp31
Rp32
s(I4
I8388608
tp33
g3
(g7
S" '\x03\xf4\x19~!="
p34
tp35
Rp36
s(I2
I2097152
tp37
g3
(g7
S'6\xb8;VX\xbd\xd0>'
p38
tp39
Rp40
s(I3
I2097152
tp41
g3
(g7
S'{C\xa38K\xae7>'
p42
tp43
Rp44
s(I3
I1048576
tp45
g3
(g7
S'g\x1f\x05sKKg>'
p46
tp47
Rp48
sS'niter_arr'
p49
(lp50
I1
aI2
aI3
aI4
aI5
as(I5
I2097152
tp51
g3
(g7
S'3\xc7\xa1\x00n\x07\t='
p52
tp53
Rp54
s(I4
I1048576
tp55
g3
(g7
S'\x089T\xf6\xde\xd2\xe0='
p56
tp57
Rp58
s(I4
I4194304
tp59
g3
(g7
S' p\x86\xd8\x90\\a='
p60
tp61
Rp62
sS'type'
p63
S'SDC'
p64
s(I5
I4194304
tp65
g3
(g7
S'\xca\r\x87OY\x89\xe3<'
p66
tp67
Rp68
s(I4
I2097152
tp69
g3
(g7
S'mn\xc5\xf9\xc5-\xa1='
p70
tp71
Rp72
s(I1
I8388608
tp73
g3
(g7
S'\x10\x80\xb4&\x071L?'
p74
tp75
Rp76
s(I3
I4194304
tp77
g3
(g7
S'\xa2>F(\xa4\xe0\x07>'
p78
tp79
Rp80
sS'nsteps_arr'
p81
(lp82
I1048576
aI2097152
aI4194304
aI8388608
as(I2
I4194304
tp83
g3
(g7
S';\xb1\x87\xcf}\xd7\xb0>'
p84
tp85
Rp86
s(I2
I1048576
tp87
g3
(g7
S"'\xebH\xee\xc2\x89\xf0>"
p88
tp89
Rp90
s(I5
I8388608
tp91
g3
(g7
S'\x0c"\x0f\xe6?\x03\xd4<'
p92
tp93
Rp94
sa(dp95
(I2
I8388608
tp96
g3
(g7
S'\xf7\xc5\x12=\xe4X\x94>'
p97
tp98
Rp99
s(I5
I1048576
tp100
g3
(g7
S'QM\xcb\x1e\xa5^_='
p101
tp102
Rp103
s(I3
I8388608
tp104
g3
(g7
S'\xbb\xd1O\xfc^\xe4\xdd='
p105
tp106
Rp107
s(I1
I1048576
tp108
g3
(g7
S'\xac\x12j\x0c\x84b\x7f?'
p109
tp110
Rp111
s(I1
I2097152
tp112
g3
(g7
S'a*\xa4\xff\xa2\x8fo?'
p113
tp114
Rp115
s(I1
I4194304
tp116
g3
(g7
S'\x10\x92\\\x06g\xa6_?'
p117
tp118
Rp119
s(I4
I8388608
tp120
g3
(g7
S'\xff\xb9\x9fL\x1d:&='
p121
tp122
Rp123
s(I2
I2097152
tp124
g3
(g7
S'!\x0f)V7/\xd4>'
p125
tp126
Rp127
s(I3
I2097152
tp128
g3
(g7
S'u\x93\xfb\xf8\t\x8f=>'
p129
tp130
Rp131
s(I3
I1048576
tp132
g3
(g7
S'\xb4Q.>8\x1fm>'
p133
tp134
Rp135
sg49
g50
s(I5
I2097152
tp136
g3
(g7
S'\r/H\xabz6\x10='
p137
tp138
Rp139
s(I4
I1048576
tp140
g3
(g7
S'2\x1e\x99\x95Q~\xe5='
p141
tp142
Rp143
s(I4
I4194304
tp144
g3
(g7
S'\x8cG5i\x7f!f='
p145
tp146
Rp147
sg63
S'MLSDC'
p148
s(I5
I4194304
tp149
g3
(g7
S'\xc7M\xe7A\xfa\xdd\xe3<'
p150
tp151
Rp152
s(I4
I2097152
tp153
g3
(g7
S'\x86X\x9c\xd0Z\xea\xa5='
p154
tp155
Rp156
s(I1
I8388608
tp157
g3
(g7
S'\x0b\x93wK\xd6\xb1O?'
p158
tp159
Rp160
s(I3
I4194304
tp161
g3
(g7
S'\t\x99\xaa]\xca\xc7\r>'
p162
tp163
Rp164
sg81
g82
s(I2
I4194304
tp165
g3
(g7
S'B\xe7*;\xf1J\xb4>'
p166
tp167
Rp168
s(I2
I1048576
tp169
g3
(g7
S'\xceJ\x99\xdfq\xf8\xf3>'
p170
tp171
Rp172
s(I5
I8388608
tp173
g3
(g7
S'\xd4y\x08\x91?\x03\xd4<'
p174
tp175
Rp176
sa.