(lp0
(dp1
(I2
I16384
tp2
cnumpy.core.multiarray
scalar
p3
(cnumpy
dtype
p4
(S'f8'
p5
I0
I1
tp6
Rp7
(I3
S'<'
p8
NNNI-1
I-1
I0
tp9
bS'n+(\xbbh\x06\x1a?'
p10
tp11
Rp12
s(I3
I65536
tp13
g3
(g7
S'D\x1c*\xc8V@ >'
p14
tp15
Rp16
s(I4
I16384
tp17
g3
(g7
S'\x1e\x13^L[3">'
p18
tp19
Rp20
s(I4
I32768
tp21
g3
(g7
S'<\xa5R\xe0\xa86\xd3='
p22
tp23
Rp24
s(I1
I65536
tp25
g3
(g7
S'c\x8b\xb6[a\xacW?'
p26
tp27
Rp28
s(I4
I131072
tp29
g3
(g7
S'\xf9\x9f\xb5j/\x0f:='
p30
tp31
Rp32
s(I2
I32768
tp33
g3
(g7
S'u\x16W\xf31\xe0\xea>'
p34
tp35
Rp36
s(I3
I16384
tp37
g3
(g7
S'\xc4=\xc6\x14\xc4d\x9e>'
p38
tp39
Rp40
s(I3
I131072
tp41
g3
(g7
S'\xd8\xd6w\xac\x10o\xe0='
p42
tp43
Rp44
sS'niter_arr'
p45
(lp46
I1
aI2
aI3
aI4
aI5
as(I5
I65536
tp47
g3
(g7
S'\xc0\x9b\xa8\x08\x16\xd8-='
p48
tp49
Rp50
s(I4
I65536
tp51
g3
(g7
S'\xc3\x92\x9f[\xf8\xa1\x83='
p52
tp53
Rp54
sS'type'
p55
S'SDC'
p56
s(I5
I32768
tp57
g3
(g7
S"|m]\x8d'\x80M="
p58
tp59
Rp60
s(I1
I16384
tp61
g3
(g7
S'\xa60\x9f\x14\xa6\xf7\x96?'
p62
tp63
Rp64
s(I5
I16384
tp65
g3
(g7
S';\x8a\xb1\xc3DJ\xa5='
p66
tp67
Rp68
s(I1
I32768
tp69
g3
(g7
S'S\x00U\xbetow?'
p70
tp71
Rp72
s(I1
I131072
tp73
g3
(g7
S'=\x97q\xf5\x19\xcb7?'
p74
tp75
Rp76
sS'nsteps_arr'
p77
(lp78
I16384
aI32768
aI65536
aI131072
as(I5
I131072
tp79
g3
(g7
S'\xaf1y7\x98T%='
p80
tp81
Rp82
s(I2
I65536
tp83
g3
(g7
S'r\xa4a\xff\xcdO\xbb>'
p84
tp85
Rp86
s(I2
I131072
tp87
g3
(g7
S'#b$\x82M\x88\x8b>'
p88
tp89
Rp90
s(I3
I32768
tp91
g3
(g7
S'\xbb\xda\xa6\x14\xc7\xc8_>'
p92
tp93
Rp94
sa(dp95
(I2
I16384
tp96
g3
(g7
S'\xbc\xfd\x90\x84/1\x9d>'
p97
tp98
Rp99
s(I3
I65536
tp100
g3
(g7
S'\x0ba\x17S&\xd2\t>'
p101
tp102
Rp103
s(I4
I16384
tp104
g3
(g7
S'\xaf\xd7\xfc\xfe0\xe97>'
p105
tp106
Rp107
s(I4
I32768
tp108
g3
(g7
S'\x020\xfb\x90@\x9a\x02>'
p109
tp110
Rp111
s(I1
I65536
tp112
g3
(g7
S'Z\xe6\x88\x02\x8a\xbe\xb9>'
p113
tp114
Rp115
s(I4
I131072
tp116
g3
(g7
S'\x97:\xb3\xf9\xc4\x95z='
p117
tp118
Rp119
s(I2
I32768
tp120
g3
(g7
S'M\xe4\xd2\x89:h{>'
p121
tp122
Rp123
s(I3
I16384
tp124
g3
(g7
S'\x89\xadfFH\xefk>'
p125
tp126
Rp127
s(I3
I131072
tp128
g3
(g7
S'*4Q\xd8\xdf\xae\xd1='
p129
tp130
Rp131
sg45
g46
s(I5
I65536
tp132
g3
(g7
S'\xe8\x13\x9c\x8aH\xcay='
p133
tp134
Rp135
s(I4
I65536
tp136
g3
(g7
S'\x94\xb3\xf8\x1836\xc1='
p137
tp138
Rp139
sg55
S'MLSDC'
p140
s(I5
I32768
tp141
g3
(g7
S';W\xd1\x91g\xcf\xc5='
p142
tp143
Rp144
s(I1
I16384
tp145
g3
(g7
S'\xae\x0bt\xa0\x858\x17?'
p146
tp147
Rp148
s(I5
I16384
tp149
g3
(g7
S'\x97\xf5\x97\xa2U6\x06>'
p150
tp151
Rp152
s(I1
I32768
tp153
g3
(g7
S'U~\xb0Q\xa2l\xe8>'
p154
tp155
Rp156
s(I1
I131072
tp157
g3
(g7
S'#\xb8R\x8c\xc3\xd5\x8b>'
p158
tp159
Rp160
sg77
g78
s(I5
I131072
tp161
g3
(g7
S'\x00#\x97\x8b \x9e+='
p162
tp163
Rp164
s(I2
I65536
tp165
g3
(g7
S'\x8d,SG>\x94S>'
p166
tp167
Rp168
s(I2
I131072
tp169
g3
(g7
S"\xce\x810\xac\xc2\xd1'>"
p170
tp171
Rp172
s(I3
I32768
tp173
g3
(g7
S'>\x93X\x9ewy=>'
p174
tp175
Rp176
sa.