(lp0
(dp1
(I2
I8192
tp2
cnumpy.core.multiarray
scalar
p3
(cnumpy
dtype
p4
(S'f8'
p5
I0
I1
tp6
Rp7
(I3
S'<'
p8
NNNI-1
I-1
I0
tp9
bS'.\xc2dp\x04[F?'
p10
tp11
Rp12
s(I5
I8192
tp13
g3
(g7
S'\xe3\x9aN\x1d\xc2\xf8=>'
p14
tp15
Rp16
s(I3
I8192
tp17
g3
(g7
S'\r\x08.k\xb6\xc6\xde>'
p18
tp19
Rp20
s(I1
I2048
tp21
g3
(g7
S'W\xcf\xcc\xae\xb9M\xd5?'
p22
tp23
Rp24
s(I4
I2048
tp25
g3
(g7
S'Xw\xa4z.\xfa\xf0>'
p26
tp27
Rp28
s(I2
I2048
tp29
g3
(g7
S'\xa0\xd2\x97\x0e\x83\x07\x84?'
p30
tp31
Rp32
s(I3
I4096
tp33
g3
(g7
S'\x0fqu\xfc\x84+\r?'
p34
tp35
Rp36
sS'niter_arr'
p37
(lp38
I1
aI2
aI3
aI4
aI5
as(I5
I4096
tp39
g3
(g7
S'\x86\xed?o\x9f\x96}>'
p40
tp41
Rp42
s(I4
I8192
tp43
g3
(g7
S'\xdf;\x8c\x04\xed1u>'
p44
tp45
Rp46
sS'type'
p47
S'SDC'
p48
s(I5
I2048
tp49
g3
(g7
S"'\n\xa5W[\xc5\xbc>"
p50
tp51
Rp52
s(I3
I1024
tp53
g3
(g7
S'\xaad\xf9\x86V\xa6e?'
p54
tp55
Rp56
s(I1
I1024
tp57
g3
(g7
S'\xeb.\xb5\x7f\x08\xd6\xe3?'
p58
tp59
Rp60
s(I4
I4096
tp61
g3
(g7
S'Q\xb6O\x9f\xab\x9c\xb3>'
p62
tp63
Rp64
s(I1
I4096
tp65
g3
(g7
S'U\x0f\xe3-\xc54\xc6?'
p66
tp67
Rp68
s(I5
I1024
tp69
g3
(g7
S'\xb7\xef\xc0O\x17\t\xfb>'
p70
tp71
Rp72
sS'nsteps_arr'
p73
(lp74
I1024
aI2048
aI4096
aI8192
as(I2
I1024
tp75
g3
(g7
S'\x0e+\xf3\xc9h\xa2\xa1?'
p76
tp77
Rp78
s(I3
I2048
tp79
g3
(g7
S'"g\x07\x0c\'B:?'
p80
tp81
Rp82
s(I2
I4096
tp83
g3
(g7
S'\xdct\xe7=\x9f\x88e?'
p84
tp85
Rp86
s(I4
I1024
tp87
g3
(g7
S'v\x98\xad\x11\xae^*?'
p88
tp89
Rp90
s(I1
I8192
tp91
g3
(g7
S'\xeaX\xc8\xd8\xce\xaf\xb6?'
p92
tp93
Rp94
sa(dp95
(I2
I8192
tp96
g3
(g7
S'\xde\x8d\xc6\xe9\xc7\x8dL?'
p97
tp98
Rp99
s(I5
I8192
tp100
g3
(g7
S'\xee5s%\xfb\xf9=>'
p101
tp102
Rp103
s(I3
I8192
tp104
g3
(g7
S'\xd8\xabZ\x07\xca\xa3\xe3>'
p105
tp106
Rp107
s(I1
I2048
tp108
g3
(g7
S'\xbc\xc6w\x01\x9c\xda\xd5?'
p109
tp110
Rp111
s(I4
I2048
tp112
g3
(g7
S'Y\xe8\xfd\x10\xcb<\xf5>'
p113
tp114
Rp115
s(I2
I2048
tp116
g3
(g7
S'\xddTX]\xa78\x89?'
p117
tp118
Rp119
s(I3
I4096
tp120
g3
(g7
S'\xdb\x9e\xe8\xb4\xb0s\x12?'
p121
tp122
Rp123
sg37
g38
s(I5
I4096
tp124
g3
(g7
S'\x06\xd7\x14N\x90\x99}>'
p125
tp126
Rp127
s(I4
I8192
tp128
g3
(g7
S'\xf5x{\xd4\x039{>'
p129
tp130
Rp131
sg47
S'MLSDC'
p132
s(I5
I2048
tp133
g3
(g7
S'\x02\xc8\xe4\xd3\xe5\xca\xbc>'
p134
tp135
Rp136
s(I3
I1024
tp137
g3
(g7
S')\xc4\xf0\xc8N\xa8j?'
p138
tp139
Rp140
s(I1
I1024
tp141
g3
(g7
S"\xf0'h\xe7\xa0/\xe4?"
p142
tp143
Rp144
s(I4
I4096
tp145
g3
(g7
S'd!m\xed\x1b\x08\xb9>'
p146
tp147
Rp148
s(I1
I4096
tp149
g3
(g7
S'\x9beS$\x84\xcb\xc6?'
p150
tp151
Rp152
s(I5
I1024
tp153
g3
(g7
S'\xe8=\xc6\\\xbb\x15\xfb>'
p154
tp155
Rp156
sg73
g74
s(I2
I1024
tp157
g3
(g7
S'f\x83\x03\x11\xf4\xa9\xa5?'
p158
tp159
Rp160
s(I3
I2048
tp161
g3
(g7
S'4\xbej\xed\xd7m@?'
p162
tp163
Rp164
s(I2
I4096
tp165
g3
(g7
S'\x07\xbcmL\xdb]k?'
p166
tp167
Rp168
s(I4
I1024
tp169
g3
(g7
S'\xc8\x8f\x1a\xc4\xd6\xab/?'
p170
tp171
Rp172
s(I1
I8192
tp173
g3
(g7
S'f\xdb \xa3\xdfK\xb7?'
p174
tp175
Rp176
sa.