(lp0
(dp1
(I3
I128
tp2
cnumpy.core.multiarray
scalar
p3
(cnumpy
dtype
p4
(S'f8'
p5
I0
I1
tp6
Rp7
(I3
S'<'
p8
NNNI-1
I-1
I0
tp9
bS'\xa1 \x87H\x06\x0e(?'
p10
tp11
Rp12
s(I3
I256
tp13
g3
(g7
S'P\x90?\xa6T\xe8\xf1>'
p14
tp15
Rp16
s(I1
I64
tp17
g3
(g7
S'\xbd\xa8\xe7\xc7\xf3\xcd\xfb?'
p18
tp19
Rp20
s(I2
I256
tp21
g3
(g7
S'\xfa8\x0cm;`a?'
p22
tp23
Rp24
s(I1
I512
tp25
g3
(g7
S'\x84\x9e\x06\xe7Np\xb4?'
p26
tp27
Rp28
s(I4
I256
tp29
g3
(g7
S'\xb2\x7fm\xbd\x8a\xa6\x82>'
p30
tp31
Rp32
s(I2
I64
tp33
g3
(g7
S'DH\xfe\x85\xbe`\xa8?'
p34
tp35
Rp36
s(I3
I512
tp37
g3
(g7
S'\x93\x06\xb9D\x05\xd8\xb5>'
p38
tp39
Rp40
sS'niter_arr'
p41
(lp42
I1
aI2
aI3
aI4
aI5
as(I5
I256
tp43
g3
(g7
S'\xda\x88`\x1are\x13>'
p44
tp45
Rp46
s(I4
I128
tp47
g3
(g7
S'F!\xcb\xd8\xfc\xd7\xc7>'
p48
tp49
Rp50
sS'type'
p51
S'SDC'
p52
s(I5
I128
tp53
g3
(g7
S';\x81Y\xb7\xe3 h>'
p54
tp55
Rp56
s(I3
I64
tp57
g3
(g7
S'\x1e6~\x0f\xb4&V?'
p58
tp59
Rp60
s(I2
I512
tp61
g3
(g7
S'N\xe0\xd6n{\xc74?'
p62
tp63
Rp64
s(I1
I128
tp65
g3
(g7
S'2\xbbT\xd0;u\xe9?'
p66
tp67
Rp68
s(I4
I512
tp69
g3
(g7
S'&:*\x174M7>'
p70
tp71
Rp72
s(I4
I64
tp73
g3
(g7
S'\x86\xa6\x0ct=0\x04?'
p74
tp75
Rp76
sS'nsteps_arr'
p77
(lp78
I64
aI128
aI256
aI512
as(I1
I256
tp79
g3
(g7
S'\xfc`\x84\xbf\x93p\xd1?'
p80
tp81
Rp82
s(I2
I128
tp83
g3
(g7
S'|\xe5U.\xdfn\x88?'
p84
tp85
Rp86
s(I5
I64
tp87
g3
(g7
S'\xb8\x8c\xc1\xf1)E\xb2>'
p88
tp89
Rp90
s(I5
I512
tp91
g3
(g7
S'\x11R\x1c4^Z\xb8='
p92
tp93
Rp94
sa(dp95
(I3
I128
tp96
g3
(g7
S'\x8fNcS\xd1\x82\x14>'
p97
tp98
Rp99
s(I3
I256
tp100
g3
(g7
S'@\xf8o\xaa\xd9\xec\xb6='
p101
tp102
Rp103
s(I1
I64
tp104
g3
(g7
S'\x16\xa2\xfc\xf5\x8cL\xa8?'
p105
tp106
Rp107
s(I2
I256
tp108
g3
(g7
S'zG\xf3\x8a0\x89\x82>'
p109
tp110
Rp111
s(I1
I512
tp112
g3
(g7
S'\x00\x7f\x9f\xc9\xc0\xb64?'
p113
tp114
Rp115
s(I4
I256
tp116
g3
(g7
S'v\x809\xac_\x93\xaf='
p117
tp118
Rp119
s(I2
I64
tp120
g3
(g7
S'\xa0EA<\xf8\x0c\x04?'
p121
tp122
Rp123
s(I3
I512
tp124
g3
(g7
S':\x9d\x9eX\xc0%`='
p125
tp126
Rp127
sg41
g42
s(I5
I256
tp128
g3
(g7
S'\xa9\x1d\x8bU+\xee\xae='
p129
tp130
Rp131
s(I4
I128
tp132
g3
(g7
S'g\x8e\t\xb3\xe7]\x06>'
p133
tp134
Rp135
sg51
S'MLSDC'
p136
s(I5
I128
tp137
g3
(g7
S'\xd2\x07g\xc4\x9bL\x06>'
p138
tp139
Rp140
s(I3
I64
tp141
g3
(g7
S'RR"\x97\x9e\x16i>'
p142
tp143
Rp144
s(I2
I512
tp145
g3
(g7
S'\x8e8\xd4\xb8\xd7*7>'
p146
tp147
Rp148
s(I1
I128
tp149
g3
(g7
S'\t\xe7\xd1!\xf2Z\x88?'
p150
tp151
Rp152
s(I4
I512
tp153
g3
(g7
S'd}\x18!\xbb\xd9g='
p154
tp155
Rp156
s(I4
I64
tp157
g3
(g7
S'\xcfB\x97\xb1\xbdMY>'
p158
tp159
Rp160
sg77
g78
s(I1
I256
tp161
g3
(g7
S'\xf8\xa7\xa7\xb1YRa?'
p162
tp163
Rp164
s(I2
I128
tp165
g3
(g7
S'\xb7\xae\xbfB\x15\xb2\xc7>'
p166
tp167
Rp168
s(I5
I64
tp169
g3
(g7
S'a\x92*ueMY>'
p170
tp171
Rp172
s(I5
I512
tp173
g3
(g7
S'\xaa\xfd\xe4\x1f \xdad='
p174
tp175
Rp176
sa.