(lp0
(dp1
(I4
I8
tp2
cnumpy.core.multiarray
scalar
p3
(cnumpy
dtype
p4
(S'f8'
p5
I0
I1
tp6
Rp7
(I3
S'<'
p8
NNNI-1
I-1
I0
tp9
bS'`\x86\xeeD\xfc\xf9\xc5>'
p10
tp11
Rp12
s(I3
I128
tp13
g3
(g7
S'\xc9\xff/3\re0>'
p14
tp15
Rp16
s(I2
I8
tp17
g3
(g7
S'-\xaeM\xe1\x8c\x88!?'
p18
tp19
Rp20
s(I5
I32
tp21
g3
(g7
S'`\x8b\xdc!\x1c\x96J>'
p22
tp23
Rp24
s(I1
I64
tp25
g3
(g7
S'\xb5)\xc9\x1f\x16@e?'
p26
tp27
Rp28
s(I5
I8
tp29
g3
(g7
S'a\xadz\xa5t\r\xc6>'
p30
tp31
Rp32
s(I4
I128
tp33
g3
(g7
S'\xc7\n>\r?\xf2\xc1='
p34
tp35
Rp36
s(I1
I16
tp37
g3
(g7
S'\xcd@I,:\xc1\x85?'
p38
tp39
Rp40
s(I2
I64
tp41
g3
(g7
S'\x06\x05\x17\x9c\xba\xf6\xd6>'
p42
tp43
Rp44
sS'niter_arr'
p45
(lp46
I1
aI2
aI3
aI4
aI5
as(I5
I128
tp47
g3
(g7
S'\xc7\n>\r?\xf2\xc1='
p48
tp49
Rp50
s(I3
I16
tp51
g3
(g7
S'\xdd\x9a/H\xc5\x81\xa8>'
p52
tp53
Rp54
s(I1
I32
tp55
g3
(g7
S'\xf9\\\xd2T!iu?'
p56
tp57
Rp58
sS'type'
p59
S'SDC'
p60
s(I2
I16
tp61
g3
(g7
S'\xa0\x91\x12\xb9\xfd(\x11?'
p62
tp63
Rp64
s(I3
I64
tp65
g3
(g7
S'\x85\x1bh?z\x80]>'
p66
tp67
Rp68
s(I4
I16
tp69
g3
(g7
S'\x98s\x15\xd3\xae\x13\x84>'
p70
tp71
Rp72
s(I2
I32
tp73
g3
(g7
S'!\x02\xc2Y\xb3\x1e\xf5>'
p74
tp75
Rp76
s(I1
I128
tp77
g3
(g7
S'\nq\xcf\x968,U?'
p78
tp79
Rp80
s(I4
I64
tp81
g3
(g7
S'\x94\x07\xc8\xaa-6\x02>'
p82
tp83
Rp84
sS'nsteps_arr'
p85
(lp86
I8
aI16
aI32
aI64
aI128
as(I5
I16
tp87
g3
(g7
S'\x1e\xa7\xff\xf1\r\xeb\x88>'
p88
tp89
Rp90
s(I3
I32
tp91
g3
(g7
S']B\x9d\x14\xa1K\x87>'
p92
tp93
Rp94
s(I3
I8
tp95
g3
(g7
S'\xb1S\x8bsq$\xca>'
p96
tp97
Rp98
s(I2
I128
tp99
g3
(g7
S',\xe9k\rK\xd8\xb7>'
p100
tp101
Rp102
s(I1
I8
tp103
g3
(g7
S"'T*|\x0f\x8e\x96?"
p104
tp105
Rp106
s(I5
I64
tp107
g3
(g7
S'\x976\xe1\xd1\x90\x81\x0b>'
p108
tp109
Rp110
s(I4
I32
tp111
g3
(g7
S'\xfb\rz\xf8\xe3\xcfB>'
p112
tp113
Rp114
sa(dp115
(I4
I8
tp116
g3
(g7
S'+D6(W3\xfa>'
p117
tp118
Rp119
s(I3
I128
tp120
g3
(g7
S'\x94\x9dO\r\x01\x13~>'
p121
tp122
Rp123
s(I2
I8
tp124
g3
(g7
S'\x151#\xdc\xa2\xabw?'
p125
tp126
Rp127
s(I5
I32
tp128
g3
(g7
S'\x023dB\xdd$M>'
p129
tp130
Rp131
s(I1
I64
tp132
g3
(g7
S'\xf7\x89+G2\xaa\x81?'
p133
tp134
Rp135
s(I5
I8
tp136
g3
(g7
S'D\xea\x13\xd5P\x15\xcf>'
p137
tp138
Rp139
s(I4
I128
tp140
g3
(g7
S'\x96\xa1\xff\x1e\x0b\x02\xff='
p141
tp142
Rp143
s(I1
I16
tp144
g3
(g7
S'\x86\xed\x8dP0|\xa1?'
p145
tp146
Rp147
s(I2
I64
tp148
g3
(g7
S'\xde|\x8c\x88^$\x1b?'
p149
tp150
Rp151
sg45
g46
s(I5
I128
tp152
g3
(g7
S'!\xbe5\x0b\xf2\x12\xcd='
p153
tp154
Rp155
s(I3
I16
tp156
g3
(g7
S'\x8fC\xf0(\x93}\x0c?'
p157
tp158
Rp159
s(I1
I32
tp160
g3
(g7
S'\xd7g\xabGU\x95\x91?'
p161
tp162
Rp163
sg59
S'MLSDC'
p164
s(I2
I16
tp165
g3
(g7
S'(T=\xcdo\xc6Y?'
p166
tp167
Rp168
s(I3
I64
tp169
g3
(g7
S'\xf98\xc6\xc3\x0e\xe6\xad>'
p170
tp171
Rp172
s(I4
I16
tp173
g3
(g7
S' \xf2\xa5<\xa2)\xbd>'
p174
tp175
Rp176
s(I2
I32
tp177
g3
(g7
S'\x0e\xe4\xaa\x13\xbc\xb9:?'
p178
tp179
Rp180
s(I1
I128
tp181
g3
(g7
S'\xd0\xeaf\x86\xeb\xb6q?'
p182
tp183
Rp184
s(I4
I64
tp185
g3
(g7
S'\rE\xadB\xdf\xd0>>'
p186
tp187
Rp188
sg85
g86
s(I5
I16
tp189
g3
(g7
S'Vs5\xea\xcb\xe9\x8d>'
p190
tp191
Rp192
s(I3
I32
tp193
g3
(g7
S'\xde3\xd1\x9a\x9a}\xdd>'
p194
tp195
Rp196
s(I3
I8
tp197
g3
(g7
S'\x8f\xd7\xe4\xdaz\x08:?'
p198
tp199
Rp200
s(I2
I128
tp201
g3
(g7
S'\x15#\xf8\x03QT\xfb>'
p202
tp203
Rp204
s(I1
I8
tp205
g3
(g7
S'\xbfM\xdd\x08\xd7\x82\xb1?'
p206
tp207
Rp208
s(I5
I64
tp209
g3
(g7
S'Um\t\xc1L\xb5\r>'
p210
tp211
Rp212
s(I4
I32
tp213
g3
(g7
S'\xab\x0f\x93\xcc`X~>'
p214
tp215
Rp216
sa.