(lp0
(dp1
(I2
I16384
tp2
cnumpy.core.multiarray
scalar
p3
(cnumpy
dtype
p4
(S'f8'
p5
I0
I1
tp6
Rp7
(I3
S'<'
p8
NNNI-1
I-1
I0
tp9
bS'1d\xc4|\x06\xee\xdc>'
p10
tp11
Rp12
s(I3
I65536
tp13
g3
(g7
S'\xe5\xe4Sv\xb2\x10\xe2='
p14
tp15
Rp16
s(I4
I16384
tp17
g3
(g7
S'M\x16%u\x1a\x07\xe4='
p18
tp19
Rp20
s(I4
I32768
tp21
g3
(g7
S'\x86PfzG8\x95='
p22
tp23
Rp24
s(I1
I65536
tp25
g3
(g7
S'b\xbeKG\xcdP\x1a?'
p26
tp27
Rp28
s(I4
I131072
tp29
g3
(g7
S'H\xcf\x86G!#\xfc<'
p30
tp31
Rp32
s(I2
I32768
tp33
g3
(g7
S't\x10\x10\x88\x1e\xe0\xad>'
p34
tp35
Rp36
s(I3
I16384
tp37
g3
(g7
S'q\xe1\xf9h\x9a\xe4`>'
p38
tp39
Rp40
s(I3
I131072
tp41
g3
(g7
S'\xed#p\xc2\xa4D\xa2='
p42
tp43
Rp44
sS'niter_arr'
p45
(lp46
I1
aI2
aI3
aI4
aI5
as(I5
I65536
tp47
g3
(g7
S'\x94E\xcca\x99\xe5\xf6<'
p48
tp49
Rp50
s(I4
I65536
tp51
g3
(g7
S'Syj\xd8\x00\xdeE='
p52
tp53
Rp54
sS'type'
p55
S'SDC'
p56
s(I5
I32768
tp57
g3
(g7
S'yP8f:\xe6\r='
p58
tp59
Rp60
s(I1
I16384
tp61
g3
(g7
S'\xeae"\xf0\xe5\x87Y?'
p62
tp63
Rp64
s(I5
I16384
tp65
g3
(g7
S'\x13Z=o\xa7\xb2g='
p66
tp67
Rp68
s(I1
I32768
tp69
g3
(g7
S'\x1eJ\x1b\xde\x13\r:?'
p70
tp71
Rp72
s(I1
I131072
tp73
g3
(g7
S'\xcc\x1c"\xad\xf3r\xfa>'
p74
tp75
Rp76
sS'nsteps_arr'
p77
(lp78
I16384
aI32768
aI65536
aI131072
as(I5
I131072
tp79
g3
(g7
S'\x04G^!J\x81\xec<'
p80
tp81
Rp82
s(I2
I65536
tp83
g3
(g7
S'Kkv\x9d/\\~>'
p84
tp85
Rp86
s(I2
I131072
tp87
g3
(g7
S'F\x90\x9ev\xfd\x9aN>'
p88
tp89
Rp90
s(I3
I32768
tp91
g3
(g7
S'\xa2\xa1\xf9Uz\xaa!>'
p92
tp93
Rp94
sa(dp95
(I2
I16384
tp96
g3
(g7
S'\xbe\x9b\xea\t\xb2\xf8l>'
p97
tp98
Rp99
s(I3
I65536
tp100
g3
(g7
S'8\xde\xea\x9b}\xb3\xd5='
p101
tp102
Rp103
s(I4
I16384
tp104
g3
(g7
S'\x194\x85\x18\x1f\x04\xf3='
p105
tp106
Rp107
s(I4
I32768
tp108
g3
(g7
S'\x8dj\x16\xd8\x9a\xce\xc6='
p109
tp110
Rp111
s(I1
I65536
tp112
g3
(g7
S'\xad\xe4\x19\xa4\xc4\x8f~>'
p113
tp114
Rp115
s(I4
I131072
tp116
g3
(g7
S'\xc2\x90\x0c\xfa\xb6\xdaD='
p117
tp118
Rp119
s(I2
I32768
tp120
g3
(g7
S'm@3V\x04)I>'
p121
tp122
Rp123
s(I3
I16384
tp124
g3
(g7
S'v\x18Z\xa1\xe692>'
p125
tp126
Rp127
s(I3
I131072
tp128
g3
(g7
S'\xd5\xc0\xfd_\x16:\x9d='
p129
tp130
Rp131
sg45
g46
s(I5
I65536
tp132
g3
(g7
S'\xaf\xaa\xfa\xa0\xe5\x00@='
p133
tp134
Rp135
s(I4
I65536
tp136
g3
(g7
S'k+6\x01\x99\xe9\x8a='
p137
tp138
Rp139
sg55
S'MLSDC'
p140
s(I5
I32768
tp141
g3
(g7
S'\xa8\xa7\xd08\xb7\xca\x81='
p142
tp143
Rp144
s(I1
I16384
tp145
g3
(g7
S'SE\xb3>\xd2\xd0\xd9>'
p146
tp147
Rp148
s(I5
I16384
tp149
g3
(g7
S'\xe6\x0e\xe2\x83|\xea\xc8='
p150
tp151
Rp152
s(I1
I32768
tp153
g3
(g7
S'Z\xb4t?\x1bI\xab>'
p154
tp155
Rp156
s(I1
I131072
tp157
g3
(g7
S'\xfa\xa4\xc0N*\x93T>'
p158
tp159
Rp160
sg77
g78
s(I5
I131072
tp161
g3
(g7
S'\xd8~[\x04Fy\xf3<'
p162
tp163
Rp164
s(I2
I65536
tp165
g3
(g7
S'\xbc\xa7\x94m\xa4k!>'
p166
tp167
Rp168
s(I2
I131072
tp169
g3
(g7
S'M\x89\tX\xae\xd1\xf4='
p170
tp171
Rp172
s(I3
I32768
tp173
g3
(g7
S'\nP\x9a\x9b\x13\xcd\x08>'
p174
tp175
Rp176
sa.