(lp0
(dp1
<<<<<<< HEAD
I4096
=======
(I2
I2097152
tp2
>>>>>>> changed some stuff (mainly for auzinger and vanderpol)
cnumpy.core.multiarray
scalar
p2
(cnumpy
dtype
p3
(S'f8'
p4
I0
I1
tp5
Rp6
(I3
S'<'
p7
NNNI-1
I-1
I0
<<<<<<< HEAD
tp8
bS'\x00\x00\x00\x00\x00HQ='
p9
tp10
Rp11
sI8192
g2
(g6
S'\x00\x00\x00\x00\x00`\x11='
p12
tp13
Rp14
s(I9
=======
tp9
bS'\xb2\x9a\xee\x89\xec\xcf\xa9>'
p10
tp11
Rp12
s(I3
I1048576
tp13
g3
(g7
S'\xa2B{\xf5\x87\x10\x03>'
p14
tp15
Rp16
<<<<<<< HEAD
s(I4
>>>>>>> changed boundaries for allencahn (and init_val)
I16384
tp15
g2
(g6
S"4S\x82.\xc9x'="
p16
=======
s(I1
I262144
>>>>>>> changed some stuff (mainly for auzinger and vanderpol)
tp17
<<<<<<< HEAD
Rp18
sI16384
g2
(g6
S'\x00\x00\x00\x00\x00\x00\xd6<'
p19
tp20
Rp21
s(I7
I16384
tp22
g2
(g6
S'0pm\xba\xfbx\xb4='
p23
tp24
Rp25
s(I9
I4096
tp26
g2
(g6
S'\xc2\xa2\xa0\xb8\xfd\xc0\xfc='
p27
tp28
Rp29
s(I5
I4096
tp30
g2
(g6
S'N\xad\xe9\xa3\x03\x19\xfd>'
p31
tp32
Rp33
sS'niter_arr'
=======
g3
(g7
S'\xddy\xe2s\x05\x84\xb2?'
p18
tp19
Rp20
s(I3
I65536
tp21
g3
(g7
S'\xc4\x81<\xd1\x99\x88\xc2>'
p22
tp23
Rp24
s(I1
I1048576
tp25
g3
(g7
S'\x7f\x9a\x9a\xc6K\x90\x92?'
p26
tp27
Rp28
s(I1
I131072
tp29
g3
(g7
S'\xa0ape\xbcs\xc2?'
p30
tp31
Rp32
s(I4
I65536
tp33
g3
(g7
<<<<<<< HEAD
S'\xe8\xca?9\xbc\xe6\xf3='
>>>>>>> changed boundaries for allencahn (and init_val)
p34
(lp35
I5
aI7
aI9
aI11
as(I5
I16384
<<<<<<< HEAD
tp36
g2
(g6
S'}\xc3F\x19\xfd\xebj>'
p37
tp38
Rp39
sS'type'
p40
S'SDC'
p41
sI32768
g2
(g6
S'\x00\x00\x00\x00\x00\x00\xc0<'
=======
=======
S'\xb1<\x069\xf4\t<>'
p34
tp35
Rp36
s(I3
I2097152
>>>>>>> changed some stuff (mainly for auzinger and vanderpol)
tp37
g3
(g7
S'\xb2\xa2F&\x08\x15\xd3='
p38
tp39
Rp40
s(I5
I2097152
tp41
g3
(g7
<<<<<<< HEAD
S'\xfe\xd2\x18\xfd\x01\x0f"='
>>>>>>> changed boundaries for allencahn (and init_val)
p42
tp43
Rp44
s(I5
I8192
tp45
g2
(g6
S'\xf8*\xb4\xa2\xd9\xa7\xb5>'
p46
tp47
<<<<<<< HEAD
Rp48
s(I9
I32768
=======
g3
(g7
S'\xaa\xac\xb1P\x1f\x00\x15='
p48
>>>>>>> changed boundaries for allencahn (and init_val)
tp49
g2
(g6
S'\x12\xe1\x8a\x88Yb\xf1<'
p50
tp51
<<<<<<< HEAD
Rp52
s(I11
I4096
=======
g3
(g7
S'j\x94\x9d|.\x00\x15='
p52
>>>>>>> changed boundaries for allencahn (and init_val)
tp53
g2
(g6
S'\xe0\xe7\x90#\x84\x03\xa6='
p54
tp55
Rp56
s(I11
I8192
tp57
<<<<<<< HEAD
g2
(g6
S'\xa5H\x07IL"f='
=======
g3
(g7
S'M`\n%j|\x1e='
>>>>>>> changed boundaries for allencahn (and init_val)
p58
tp59
Rp60
s(I7
I32768
tp61
<<<<<<< HEAD
g2
(g6
S'h\xabE\xa6.\x98H='
=======
g3
(g7
S"\x0er\xc1\x81\x0e'\xf3>"
>>>>>>> changed boundaries for allencahn (and init_val)
p62
tp63
Rp64
s(I11
I16384
tp65
<<<<<<< HEAD
g2
(g6
S"h`\xd3\x88\x06p'="
p66
tp67
Rp68
sS'nsteps_arr'
p69
(lp70
I4096
aI8192
aI16384
aI32768
as(I7
I4096
=======
=======
S'\xa4\x8c\xb9w\x00\xc8\x06='
p42
tp43
Rp44
s(I2
I131072
tp45
g3
(g7
S'\xd0\x8d0\xed\xb8\x8b)?'
p46
tp47
Rp48
s(I3
I131072
tp49
g3
(g7
S'\xe8\xd7\xf0h\x83\xd0\x92>'
p50
tp51
Rp52
s(I3
I262144
tp53
g3
(g7
S'f\x81\xfa\xaa\xf6\xf4b>'
p54
tp55
Rp56
sS'niter_arr'
p57
(lp58
I1
aI2
aI3
aI4
aI5
as(I5
I65536
tp59
g3
(g7
S'\xce\xad6\x19R\xae\xb5='
p60
tp61
Rp62
s(I2
I65536
tp63
g3
(g7
S'g\x94\xca\x8e\xf7CI?'
p64
tp65
Rp66
s(I4
I262144
tp67
g3
(g7
S'\xe0Ztxw\xdb\xbc='
p68
tp69
Rp70
s(I4
I131072
tp71
g3
(g7
S'\x93\xde\x92g\xba\x94\xfc='
p72
tp73
Rp74
sS'type'
p75
S'SDC'
p76
s(I4
I1048576
tp77
g3
(g7
S'\x00\xc8\x98\xebK\x18>='
p78
tp79
Rp80
s(I5
I131072
tp81
g3
(g7
S"\xc2\xcaIr\x15'f="
p82
tp83
Rp84
s(I5
I524288
tp85
>>>>>>> changed some stuff (mainly for auzinger and vanderpol)
g3
(g7
S'\x00\x00\x90\x90\xb5\x80\x15='
p86
tp87
Rp88
s(I2
I524288
tp89
g3
(g7
S'Z\x04*\xfc5\xc2\xe9>'
p90
tp91
Rp92
s(I1
I65536
tp93
g3
(g7
<<<<<<< HEAD
S'ND"m\xd5)\xd3>'
p70
>>>>>>> changed boundaries for allencahn (and init_val)
tp71
g2
(g6
S'\nMj+)\x13\x7f>'
p72
tp73
<<<<<<< HEAD
Rp74
s(I11
I32768
=======
g3
(g7
S'\x94%\x84\xf0\xea+\x93>'
p74
>>>>>>> changed boundaries for allencahn (and init_val)
tp75
g2
(g6
S'S~x/\xbd`\xf1<'
p76
tp77
Rp78
s(I9
I8192
tp79
<<<<<<< HEAD
g2
(g6
S'\xdc\xb2\xd3\xce)\xd7\x80='
=======
g3
(g7
S'@T8G\x02\x0f"='
>>>>>>> changed boundaries for allencahn (and init_val)
p80
tp81
Rp82
s(I7
I8192
tp83
<<<<<<< HEAD
g2
(g6
S'-C\xf3\xfb\xeb$\x1d>'
=======
g3
(g7
S'/\x98\xcf\x06\xcf\xe8\xc3='
>>>>>>> changed boundaries for allencahn (and init_val)
p84
tp85
Rp86
s(I5
I32768
tp87
<<<<<<< HEAD
g2
(g6
S'\x82\x90Uc\xf0O\x1e>'
p88
tp89
Rp90
sa(dp91
I256
g2
(g6
S'\x00\x00\x00\x0c\x94iK>'
=======
=======
S'\xab\xab\n\x9epS\xd2?'
p94
tp95
Rp96
s(I1
I524288
tp97
g3
(g7
S'\x85\x1f\x9d\xd92\x8c\xa2?'
p98
tp99
Rp100
s(I1
I2097152
tp101
g3
(g7
S'\xed\xae\xf1\xcbX\x92\x82?'
p102
tp103
Rp104
s(I3
I524288
tp105
g3
(g7
S'\x08\xb7\xfd\xd7O\x073>'
p106
tp107
Rp108
s(I4
I2097152
tp109
g3
(g7
S'\xbe\xf0\xdc%\x9c\xc2\x07='
p110
tp111
Rp112
sS'nsteps_arr'
p113
(lp114
I65536
aI131072
aI262144
aI524288
aI1048576
aI2097152
as(I5
I262144
tp115
g3
(g7
S'\xae\x8f\xc3^X\xcb&='
p116
tp117
Rp118
s(I5
I1048576
tp119
g3
(g7
S'\nO\xa2\x05\x04\x90"='
p120
tp121
Rp122
s(I4
I524288
tp123
g3
(g7
S'EX\xb1Z\xb3\x07}='
p124
tp125
Rp126
s(I2
I262144
tp127
g3
(g7
S'\x80\xf0h\xc7\xfb\xaf\t?'
p128
tp129
Rp130
s(I2
I1048576
tp131
>>>>>>> changed some stuff (mainly for auzinger and vanderpol)
g3
(g7
S'`\xd1;PY\xcb\xc9>'
p132
tp133
Rp134
sa(dp135
(I2
I2097152
tp136
g3
(g7
S'\xb6\x9a\xee\x89\xec\xcf\xa9>'
p137
tp138
Rp139
s(I3
I1048576
tp140
g3
(g7
<<<<<<< HEAD
S'\x0f#b\xc49\x8e(='
>>>>>>> changed boundaries for allencahn (and init_val)
p92
tp93
Rp94
sI1024
g2
(g6
S'\x00\x00\x00\x00@F\xcc='
p95
tp96
<<<<<<< HEAD
Rp97
sI512
g2
(g6
S'\x00\x00\x00@\xd7\xfb\x0b>'
p98
tp99
Rp100
s(I11
I2048
tp101
g2
(g6
S"p\xbb:\x05\\'\xc1="
p102
tp103
Rp104
s(I9
I256
tp105
g2
(g6
S'c\xf25H\x90\x8b\x80>'
p106
tp107
Rp108
s(I9
I1024
tp109
g2
(g6
S'\xce\xed\x00\x16\xaa\x10\x01>'
p110
tp111
Rp112
s(I7
I512
tp113
g2
(g6
S'\xed\xe3\x1fM\x8e\xe9@>'
p114
tp115
Rp116
sg34
g35
s(I5
I1024
tp117
g2
(g6
S'\xcc\xc1\x98\x0e&wG>'
p118
tp119
Rp120
s(I11
I1024
tp121
g2
(g6
S'f\x04\x7f\x00\xaa\x10\x01>'
p122
tp123
Rp124
sg40
g41
s(I11
I256
tp125
g2
(g6
S'\xb2&l\xc3{\x8b\x80>'
p126
tp127
Rp128
s(I5
I2048
tp129
g2
(g6
S'\x0f#(s\xcb\x01\xfb='
p130
tp131
Rp132
s(I5
I512
tp133
g2
(g6
S'tI\xf8\x03,\x83\x92>'
p134
tp135
Rp136
sI2048
g2
(g6
S'\x00\x00\x00\x00@l\x8c='
p137
tp138
Rp139
s(I9
I2048
tp140
g2
(g6
S"p\xbb:\x05\\'\xc1="
p141
tp142
Rp143
s(I11
I512
tp144
g2
(g6
S'Z^\x98$\xc2\xe3@>'
p145
tp146
Rp147
s(I9
I512
tp148
g2
(g6
S'%jkO\xc3\xe3@>'
p149
tp150
Rp151
s(I7
I2048
tp152
g2
(g6
S'\x87"\xeb\xec\x8f\'\xc1='
p153
tp154
Rp155
sg69
(lp156
I256
aI512
aI1024
aI2048
as(I7
I256
tp157
g2
(g6
S'\x91\xb4@g:\xa1\x80>'
=======
=======
S'\x9e\x82{\xf5\x87\x10\x03>'
p141
tp142
Rp143
s(I1
I262144
tp144
>>>>>>> changed some stuff (mainly for auzinger and vanderpol)
g3
(g7
S'\xddy\xe2s\x05\x84\xb2?'
p145
tp146
Rp147
s(I3
I65536
tp148
g3
(g7
S'\xc4\x81B\xd1\x99\x88\xc2>'
p149
tp150
Rp151
s(I1
I1048576
tp152
g3
(g7
S'\x8f\x9a\x9a\xc6K\x90\x92?'
p153
tp154
Rp155
s(I1
I131072
tp156
g3
(g7
S'\xa8ape\xbcs\xc2?'
p157
tp158
Rp159
s(I4
I65536
tp160
g3
(g7
S'D\xbc\x069\xf4\t<>'
p161
tp162
Rp163
s(I3
I2097152
tp164
g3
(g7
S'\xb2\xa2F&\x08\x15\xd3='
p165
tp166
Rp167
s(I5
I2097152
tp168
g3
(g7
S'\x8e\xde\xb9_\x00\xc8\x06='
p169
tp170
Rp171
s(I2
I131072
tp172
g3
(g7
S'\xd0\x8d0\xed\xb8\x8b)?'
p173
tp174
Rp175
s(I3
I131072
tp176
g3
(g7
S'h\xd8\xf0h\x83\xd0\x92>'
p177
tp178
Rp179
s(I3
I262144
tp180
g3
(g7
S'gy\n\xac\xf6\xf4b>'
p181
tp182
Rp183
sg57
g58
s(I5
I65536
tp184
g3
(g7
S'\xce\xad6\x19R\xae\xb5='
p185
tp186
Rp187
s(I2
I65536
tp188
g3
(g7
S'g\x98\xca\x8e\xf7CI?'
p189
tp190
Rp191
s(I4
I262144
tp192
g3
(g7
S'wW\x84xw\xdb\xbc='
p193
tp194
Rp195
s(I4
I131072
tp196
g3
(g7
S'\x93\xde\x92g\xba\x94\xfc='
p197
tp198
Rp199
sg75
S'MLSDC'
p200
s(I4
I1048576
tp201
g3
(g7
S'\xcdZ\x98\xf3K\x18>='
p202
tp203
Rp204
s(I5
I131072
tp205
g3
(g7
S"\xc22Mj\x15'f="
p206
tp207
Rp208
s(I5
I524288
tp209
g3
(g7
S'\x00\x00\x90\x90\xb5\x80\x15='
p210
tp211
Rp212
s(I2
I524288
tp213
g3
(g7
S'Z\x04*\xfc5\xc2\xe9>'
p214
tp215
Rp216
s(I1
I65536
tp217
g3
(g7
S'\xab\xab\n\x9epS\xd2?'
p218
tp219
Rp220
s(I1
I524288
tp221
g3
(g7
S'\x85\x1f\x9d\xd92\x8c\xa2?'
p222
tp223
Rp224
s(I1
I2097152
tp225
g3
(g7
S'\xed\xae\xf1\xcbX\x92\x82?'
p226
tp227
Rp228
s(I3
I524288
tp229
g3
(g7
S'\n\xaf\xfd\xd7O\x073>'
p230
tp231
Rp232
s(I4
I2097152
tp233
g3
(g7
<<<<<<< HEAD
S'\x00\x1c\xd2\x17\x15HK?'
>>>>>>> changed boundaries for allencahn (and init_val)
p158
tp159
Rp160
s(I5
I256
tp161
<<<<<<< HEAD
g2
(g6
S'#\xb4\x9cw}\xea\xd8>'
=======
g3
(g7
S'l\xa7t\xc1\xc5\x9d\xd2='
>>>>>>> changed boundaries for allencahn (and init_val)
p162
tp163
Rp164
s(I7
I1024
tp165
<<<<<<< HEAD
g2
(g6
S'R3\x89\xe1\xb9\x11\x01>'
p166
tp167
Rp168
=======
=======
S'"\xba\xdc5\x9c\xc2\x07='
p234
tp235
Rp236
sg113
g114
s(I5
I262144
tp237
g3
(g7
S'\xdf\xbd\xbc~X\xcb&='
p238
tp239
Rp240
s(I5
I1048576
tp241
g3
(g7
S'\nO\xa2\x05\x04\x90"='
p242
tp243
Rp244
s(I4
I524288
tp245
>>>>>>> changed some stuff (mainly for auzinger and vanderpol)
g3
(g7
S'\xeae1Z\xb3\x07}='
p246
tp247
Rp248
s(I2
I262144
tp249
g3
(g7
S'\x80\xf0h\xc7\xfb\xaf\t?'
p250
tp251
Rp252
s(I2
I1048576
tp253
g3
(g7
<<<<<<< HEAD
S'}$\x93P\xa15\xea>'
p174
tp175
Rp176
>>>>>>> changed boundaries for allencahn (and init_val)
=======
S'b\xd1;PY\xcb\xc9>'
p254
tp255
Rp256
>>>>>>> changed some stuff (mainly for auzinger and vanderpol)
sa.