(lp0
(dp1
(I2
I8388608
tp2
cnumpy.core.multiarray
scalar
p3
(cnumpy
dtype
p4
(S'f8'
p5
I0
I1
tp6
Rp7
(I3
S'<'
p8
NNNI-1
I-1
I0
tp9
bS'\x9e\x85\x8c\xf6\xe7\xb6\xd3>'
p10
tp11
Rp12
s(I5
I1048576
tp13
g3
(g7
S'V\xd78\xe94p\x98='
p14
tp15
Rp16
s(I3
I8388608
tp17
g3
(g7
S'\xb5\xbd\x9c-\x9f\x1a\x1a>'
p18
tp19
Rp20
s(I1
I1048576
tp21
g3
(g7
S'\xda&\x1e@\x829\xbf?'
p22
tp23
Rp24
s(I1
I2097152
tp25
g3
(g7
S'\x14\xb2\xe1\xcc\x8aQ\xaf?'
p26
tp27
Rp28
s(I1
I4194304
tp29
g3
(g7
S'\xdb\xdb\x1e\xd4\xb4]\x9f?'
p30
tp31
Rp32
s(I4
I8388608
tp33
g3
(g7
S'\x18\xf05\xb4X\xb4a='
p34
tp35
Rp36
s(I2
I2097152
tp37
g3
(g7
S'd\xea6\x13T\xa1\x13?'
p38
tp39
Rp40
s(I3
I2097152
tp41
g3
(g7
S'\xb4u\xe2\xaf\x04\xecy>'
p42
tp43
Rp44
s(I3
I1048576
tp45
g3
(g7
S'&D\xb4\x03\x83\xae\xa9>'
p46
tp47
Rp48
sS'niter_arr'
p49
(lp50
I1
aI2
aI3
aI4
aI5
as(I5
I2097152
tp51
g3
(g7
S'\xc9#\xa3\xad\xf9\x19I='
p52
tp53
Rp54
s(I4
I1048576
tp55
g3
(g7
S']\xea\r\xa3-G!>'
p56
tp57
Rp58
s(I4
I4194304
tp59
g3
(g7
S'\xecVD\xe2X\x9e\xa1='
p60
tp61
Rp62
sS'type'
p63
S'SDC'
p64
s(I5
I4194304
tp65
g3
(g7
S'J\x9d\x05:-\xf0\x1e='
p66
tp67
Rp68
s(I4
I2097152
tp69
g3
(g7
S'\x1cZk\x9d\xbc\x81\xe1='
p70
tp71
Rp72
s(I1
I8388608
tp73
g3
(g7
S'^*\x8d{\xcdc\x8f?'
p74
tp75
Rp76
s(I3
I4194304
tp77
g3
(g7
S'd\xd4\xe4\xc3\x0b\x0bJ>'
p78
tp79
Rp80
sS'nsteps_arr'
p81
(lp82
I1048576
aI2097152
aI4194304
aI8388608
as(I2
I4194304
tp83
g3
(g7
S'\x1a\xcc!&\xb3\xaf\xf3>'
p84
tp85
Rp86
s(I2
I1048576
tp87
g3
(g7
S'\xf9\xc6\x01\x1f\xf5\x843?'
p88
tp89
Rp90
s(I5
I8388608
tp91
g3
(g7
S'X/\xef\xd8;6\x1e='
p92
tp93
Rp94
sa(dp95
(I2
I8388608
tp96
g3
(g7
S"L3\xe6'm\xcf\xd4>"
p97
tp98
Rp99
s(I5
I1048576
tp100
g3
(g7
S'\x96b\x93\xe1\xf5\x9d\x9a='
p101
tp102
Rp103
s(I3
I8388608
tp104
g3
(g7
S'hS\x1b\xcb\x15\xd8\x1b>'
p105
tp106
Rp107
s(I1
I1048576
tp108
g3
(g7
S'a\x05\x99\x06\x987\xc0?'
p109
tp110
Rp111
s(I1
I2097152
tp112
g3
(g7
S'\xe4S\xc32\x94D\xb0?'
p113
tp114
Rp115
s(I1
I4194304
tp116
g3
(g7
S'\xe8\xadu9\x1aK\xa0?'
p117
tp118
Rp119
s(I4
I8388608
tp120
g3
(g7
S'z\xd0\xd3\x8c\xe5\xfab='
p121
tp122
Rp123
s(I2
I2097152
tp124
g3
(g7
S'\xe4o(\xdb\xe1\xb8\x14?'
p125
tp126
Rp127
s(I3
I2097152
tp128
g3
(g7
S'\xa7\xf9\xcb\x84\xd1\xa6{>'
p129
tp130
Rp131
s(I3
I1048576
tp132
g3
(g7
S'\xc4R}\xe2/f\xab>'
p133
tp134
Rp135
sg49
g50
s(I5
I2097152
tp136
g3
(g7
S'go\n\x92DUK='
p137
tp138
Rp139
s(I4
I1048576
tp140
g3
(g7
S'^\x00\xc4%\xde\x8c">'
p141
tp142
Rp143
s(I4
I4194304
tp144
g3
(g7
S'\x9e\t!\xaff\xea\xa2='
p145
tp146
Rp147
sg63
S'MLSDC'
p148
s(I5
I4194304
tp149
g3
(g7
S'z\xd5SR\x8dv\x1f='
p150
tp151
Rp152
s(I4
I2097152
tp153
g3
(g7
S'\x98\x12\x86\xbb\xc2\xcb\xe2='
p154
tp155
Rp156
s(I1
I8388608
tp157
g3
(g7
S'\x0b\x83\xd2;_N\x90?'
p158
tp159
Rp160
s(I3
I4194304
tp161
g3
(g7
S'\xa8\x8e\xca\x16\x9f\xc7K>'
p162
tp163
Rp164
sg81
g82
s(I2
I4194304
tp165
g3
(g7
S'\x8a\x02\xf1\xc2\xe5\xc7\xf4>'
p166
tp167
Rp168
s(I2
I1048576
tp169
g3
(g7
S'\xa2\x9fqZ\x05\x9b4?'
p170
tp171
Rp172
s(I5
I8388608
tp173
g3
(g7
S'\x94m\xe9Y,6\x1e='
p174
tp175
Rp176
sa.