(lp0
(dp1
(I3
I128
tp2
cnumpy.core.multiarray
scalar
p3
(cnumpy
dtype
p4
(S'f8'
p5
I0
I1
tp6
Rp7
(I3
S'<'
p8
NNNI-1
I-1
I0
tp9
bS'ET\x9b\xad\x0c\x91\x0f?'
p10
tp11
Rp12
s(I2
I128
tp13
g3
(g7
S'@\xbb\xbd\x1aY\xa7o?'
p14
tp15
Rp16
s(I3
I256
tp17
g3
(g7
S'\x18\x18\xa3\x98\xd1E\xd2>'
p18
tp19
Rp20
s(I1
I1024
tp21
g3
(g7
S'\x10\x06?n\x8e\xd4r?'
p22
tp23
Rp24
s(I4
I512
tp25
g3
(g7
S'\xc6>OCt+\x15>'
p26
tp27
Rp28
s(I2
I256
tp29
g3
(g7
S'^\xcc\xa6\x0f\t\xc1A?'
p30
tp31
Rp32
s(I3
I1024
tp33
g3
(g7
S'/yA\re\x84T>'
p34
tp35
Rp36
sS'niter_arr'
p37
(lp38
I1
aI2
aI3
aI4
aI5
as(I5
I128
tp39
g3
(g7
S'R($\xdf<\xd0O>'
p40
tp41
Rp42
s(I4
I1024
tp43
g3
(g7
S"Z\xefq\xff\x01'\xc6="
p44
tp45
Rp46
sS'type'
p47
S'SDC'
p48
s(I4
I256
tp49
g3
(g7
S'\x10\x1f\xf3\xdc\x149c>'
p50
tp51
Rp52
s(I5
I256
tp53
g3
(g7
S'\xf7\xfbq#^\x94\xf3='
p54
tp55
Rp56
s(I4
I128
tp57
g3
(g7
S'Z\xec^\x92]\xa0\xaf>'
p58
tp59
Rp60
s(I2
I512
tp61
g3
(g7
S'\xea\xff\x9c\xb4;\xce\x12?'
p62
tp63
Rp64
s(I1
I512
tp65
g3
(g7
S'\xb1\x9e\x8f\xd0B~\x92?'
p66
tp67
Rp68
sS'nsteps_arr'
p69
(lp70
I128
aI256
aI512
aI1024
as(I5
I1024
tp71
g3
(g7
S'W\x19O\xb3\xf3t<='
p72
tp73
Rp74
s(I1
I128
tp75
g3
(g7
S'\xea+/\x91R\x9b\xd0?'
p76
tp77
Rp78
s(I1
I256
tp79
g3
(g7
S'-=\xc2\xb0\xcb\xd6\xb1?'
p80
tp81
Rp82
s(I2
I1024
tp83
g3
(g7
S'o\xef\x8e5\xe2Z\xe3>'
p84
tp85
Rp86
s(I5
I512
tp87
g3
(g7
S'\xa4\xfe8NI\x03\x96='
p88
tp89
Rp90
s(I3
I512
tp91
g3
(g7
S'\xedB:\xe1=\xb6\x93>'
p92
tp93
Rp94
sa(dp95
(I3
I128
tp96
g3
(g7
S'\x17\xe4\xbc^\xd0Q\xae>'
p97
tp98
Rp99
s(I2
I128
tp100
g3
(g7
S'\xe7\xa3\xe77VS\xe0>'
p101
tp102
Rp103
s(I3
I256
tp104
g3
(g7
S'w0;\x9d\xb6\xc9\x88>'
p105
tp106
Rp107
s(I1
I1024
tp108
g3
(g7
S'x\xc0\xc2^eM\xe3>'
p109
tp110
Rp111
s(I4
I512
tp112
g3
(g7
S'\x85@Q\xb7l\xb2f>'
p113
tp114
Rp115
s(I2
I256
tp116
g3
(g7
S'\n\xaa\xfe\x93\xae\x90\xb0>'
p117
tp118
Rp119
s(I3
I1024
tp120
g3
(g7
S',\x9f\xe6\xd0h\x80e>'
p121
tp122
Rp123
sg37
g38
s(I5
I128
tp124
g3
(g7
S'\x1e\x19\x10\x08\xb7s\x8f>'
p125
tp126
Rp127
s(I4
I1024
tp128
g3
(g7
S'4\x04\xee\x7f\xa1\xb2R>'
p129
tp130
Rp131
sg47
S'MLSDC'
p132
s(I4
I256
tp133
g3
(g7
S'\xe1&\xf9\xc7\xb2\rx>'
p134
tp135
Rp136
s(I5
I256
tp137
g3
(g7
S'~\xde\x93\x11n\xb7e>'
p138
tp139
Rp140
s(I4
I128
tp141
g3
(g7
S'I\n\x9b\xd5\x1a\xce\x9b>'
p142
tp143
Rp144
s(I2
I512
tp145
g3
(g7
S'8\xa4$\x8a\xf4$\x88>'
p146
tp147
Rp148
s(I1
I512
tp149
g3
(g7
S'rG\xf6\xc1<\xc0\x12?'
p150
tp151
Rp152
sg69
g70
s(I5
I1024
tp153
g3
(g7
S'\x00\x95#\xed\xfe\xcdA>'
p154
tp155
Rp156
s(I1
I128
tp157
g3
(g7
S'\x15\xf8\xa3w\x9b\x8do?'
p158
tp159
Rp160
s(I1
I256
tp161
g3
(g7
S'\x89\xe0\xfc3/\xb3A?'
p162
tp163
Rp164
s(I2
I1024
tp165
g3
(g7
S'\\\x05:+C}v>'
p166
tp167
Rp168
s(I5
I512
tp169
g3
(g7
S'\xb4\x04\x98|\xcb\x88R>'
p170
tp171
Rp172
s(I3
I512
tp173
g3
(g7
S'\x7f\x86\xdf}\x8a\xfdw>'
p174
tp175
Rp176
sa.