(lp0
(dp1
(I3
I128
tp2
cnumpy.core.multiarray
scalar
p3
(cnumpy
dtype
p4
(S'f8'
p5
I0
I1
tp6
Rp7
(I3
S'<'
p8
NNNI-1
I-1
I0
tp9
bS'>\xda]\xf5\xa63\xd1>'
p10
tp11
Rp12
s(I3
I256
tp13
g3
(g7
S'\xba0\xfd\x07\xdd5\x94>'
p14
tp15
Rp16
s(I1
I64
tp17
g3
(g7
S'\xa0\xb7\xf4\xfb\x0b\x04\xb0?'
p18
tp19
Rp20
s(I2
I256
tp21
g3
(g7
S'Rv\xffjG\xb9\x03?'
p22
tp23
Rp24
s(I1
I512
tp25
g3
(g7
S'\xa1Y\x10|\x7f\x8bT?'
p26
tp27
Rp28
s(I4
I256
tp29
g3
(g7
S'f>\xd0s\xff\xfe$>'
p30
tp31
Rp32
s(I2
I64
tp33
g3
(g7
S'\xbe&YV-\xf5[?'
p34
tp35
Rp36
s(I3
I512
tp37
g3
(g7
S'\x1f\x99\x8cL\x17\xe6U>'
p38
tp39
Rp40
sS'niter_arr'
p41
(lp42
I1
aI2
aI3
aI4
aI5
as(I5
I256
tp43
g3
(g7
S'\xdd\xa7\x84\x90r\xc0\xb5='
p44
tp45
Rp46
s(I4
I128
tp47
g3
(g7
S'}\xf9J\xb2\xab\xffp>'
p48
tp49
Rp50
sS'type'
p51
S'SDC'
p52
s(I5
I128
tp53
g3
(g7
S'7\xbd5#\xe5\xa7\x10>'
p54
tp55
Rp56
s(I3
I64
tp57
g3
(g7
S'I\xe5\x19Y\xba\xd3\x08?'
p58
tp59
Rp60
s(I2
I512
tp61
g3
(g7
S'\xe0\x9dR\xb7W\xe4\xd4>'
p62
tp63
Rp64
s(I1
I128
tp65
g3
(g7
S'y|\xe1\x00\xfbr\x92?'
p66
tp67
Rp68
s(I4
I512
tp69
g3
(g7
S'f\xdb95\xfcM\xd7='
p70
tp71
Rp72
s(I4
I64
tp73
g3
(g7
S'\x0f\x8bi\xb6\x81\x00\xb6>'
p74
tp75
Rp76
sS'nsteps_arr'
p77
(lp78
I64
aI128
aI256
aI512
as(I1
I256
tp79
g3
(g7
S'\xc1G\xfd\x12t\xd1s?'
p80
tp81
Rp82
s(I2
I128
tp83
g3
(g7
S'\x0eE\xf9\xa5.\x951?'
p84
tp85
Rp86
s(I5
I64
tp87
g3
(g7
S'\x05\xd6_\xab3\xf1b>'
p88
tp89
Rp90
s(I5
I512
tp91
g3
(g7
S'\xbc\xd7i\xd2\xb0tX='
p92
tp93
Rp94
sa(dp95
(I3
I128
tp96
g3
(g7
S'6~\xdf\x02\xea\xc5\xaf='
p97
tp98
Rp99
s(I3
I256
tp100
g3
(g7
S'\x11J\x16H\x94dP='
p101
tp102
Rp103
s(I1
I64
tp104
g3
(g7
S'6\xc4\xc7f\xd5\xdc[?'
p105
tp106
Rp107
s(I2
I256
tp108
g3
(g7
S'Lm;a\x90\xdd$>'
p109
tp110
Rp111
s(I1
I512
tp112
g3
(g7
S'G\xc2\xe5\xd5\x85\xd3\xd4>'
p113
tp114
Rp115
s(I4
I256
tp116
g3
(g7
S'\xb0\xbb0\xb0\xa8\x9f-='
p117
tp118
Rp119
s(I2
I64
tp120
g3
(g7
S'\xc7\xcb[H(\xd7\xb5>'
p121
tp122
Rp123
s(I3
I512
tp124
g3
(g7
S'\x87\x07\\^m<0='
p125
tp126
Rp127
sg41
g42
s(I5
I256
tp128
g3
(g7
S"\x90\xa8}\xe9\xfa\xe1'="
p129
tp130
Rp131
s(I4
I128
tp132
g3
(g7
S'\xd6/(\x12\xb9\xdfI='
p133
tp134
Rp135
sg51
S'MLSDC'
p136
s(I5
I128
tp137
g3
(g7
S'2\x9e~\xe95\\A='
p138
tp139
Rp140
s(I3
I64
tp141
g3
(g7
S'\xc4\xd4\x8a\xc1w&\x0e>'
p142
tp143
Rp144
s(I2
I512
tp145
g3
(g7
S'aHn\xee\x81+\xd7='
p146
tp147
Rp148
s(I1
I128
tp149
g3
(g7
S'-\xac\xa0\x10\x92\x861?'
p150
tp151
Rp152
s(I4
I512
tp153
g3
(g7
S'\xa9a&QS\x10\x15='
p154
tp155
Rp156
s(I4
I64
tp157
g3
(g7
S'\xdf\xee|\xd9"\x9bg='
p158
tp159
Rp160
sg77
g78
s(I1
I256
tp161
g3
(g7
S'\xbcxc`<\xa9\x03?'
p162
tp163
Rp164
s(I2
I128
tp165
g3
(g7
S'\xb4i\x9a\xca\xfe\xe2p>'
p166
tp167
Rp168
s(I5
I64
tp169
g3
(g7
S'\x0c\xc2\x8f\xb6\xd0W`='
p170
tp171
Rp172
s(I5
I512
tp173
g3
(g7
S'\x16E\x01S \x1d\x12='
p174
tp175
Rp176
sa.