(lp0
(dp1
(I3
I128
tp2
cnumpy.core.multiarray
scalar
p3
(cnumpy
dtype
p4
(S'f8'
p5
I0
I1
tp6
Rp7
(I3
S'<'
p8
NNNI-1
I-1
I0
tp9
bS'=\xcb\xdf^t\xae^>'
p10
tp11
Rp12
s(I6
I64
tp13
g3
(g7
S'`\x07dE\x96\xc49='
p14
tp15
Rp16
s(I7
I16
tp17
g3
(g7
S'\xb9\x8c\xb9\xee>^\xf9='
p18
tp19
Rp20
s(I5
I32
tp21
g3
(g7
S'\xb1\xe2\x15r\xe5\x83\xed='
p22
tp23
Rp24
s(I4
I128
tp25
g3
(g7
S'\x1e\x88\xbc\xd1%\xd9\xd5='
p26
tp27
Rp28
s(I7
I64
tp29
g3
(g7
S'`\x07dE\x96\xc49='
p30
tp31
Rp32
s(I6
I32
tp33
g3
(g7
S'\x89h\x91\x0fh\xb4\x9c='
p34
tp35
Rp36
sS'niter_arr'
p37
(lp38
I3
aI4
aI5
aI6
aI7
as(I5
I128
tp39
g3
(g7
S'\xc8D\xbf\x9bA\xa3J='
p40
tp41
Rp42
s(I3
I16
tp43
g3
(g7
S'\r\xcf%\x15\xc4\xa9\xe8>'
p44
tp45
Rp46
sS'type'
p47
S'SDC'
p48
s(I7
I32
tp49
g3
(g7
S'\xf1U\xbc/\xa8\x1c\x98='
p50
tp51
Rp52
s(I3
I64
tp53
g3
(g7
S'\xf3\xdd\xb1\x80ud\x8d>'
p54
tp55
Rp56
s(I6
I128
tp57
g3
(g7
S'Reg\xa8E1\xd7<'
p58
tp59
Rp60
s(I4
I16
tp61
g3
(g7
S'\xc3\xa1\x9f\xa8\x96_\x95>'
p62
tp63
Rp64
s(I4
I64
tp65
g3
(g7
S'\x1b#\xa8!"K\x15>'
p66
tp67
Rp68
sS'nsteps_arr'
p69
(lp70
I16
aI32
aI64
aI128
as(I7
I128
tp71
g3
(g7
S'Reg\xa8E1\xd7<'
p72
tp73
Rp74
s(I5
I16
tp75
g3
(g7
S'\xd2X\xa9H\x89[B>'
p76
tp77
Rp78
s(I3
I32
tp79
g3
(g7
S'Sz\xf5\xd3\xcaL\xbb>'
p80
tp81
Rp82
s(I5
I64
tp83
g3
(g7
S'\x1aSZM\nM\x9b='
p84
tp85
Rp86
s(I6
I16
tp87
g3
(g7
S'l\xaaE\xed;\xb4\x01>'
p88
tp89
Rp90
s(I4
I32
tp91
g3
(g7
S'\xb2\xf5\xeb:J\xc3T>'
p92
tp93
Rp94
sa(dp95
(I3
I128
tp96
g3
(g7
S'\tMw\x1a\xf5\xbe\x84>'
p97
tp98
Rp99
s(I6
I64
tp100
g3
(g7
S':{\x0b\x1ebW6='
p101
tp102
Rp103
s(I7
I16
tp104
g3
(g7
S'\xfe@\x8e\xbd\x88t\xf9='
p105
tp106
Rp107
s(I5
I32
tp108
g3
(g7
S'eHX\xb6r-\x03>'
p109
tp110
Rp111
s(I4
I128
tp112
g3
(g7
S'gKs\x06w\xc3\xf4='
p113
tp114
Rp115
s(I7
I64
tp116
g3
(g7
S'\x90\xf4\x1e\xbc\xeb\xb26='
p117
tp118
Rp119
s(I6
I32
tp120
g3
(g7
S'\x89~\xd7\xbb\xc4\xe0\x99='
p121
tp122
Rp123
sg37
g38
s(I5
I128
tp124
g3
(g7
S'\x15\x0c\x80\x1a\x93{`='
p125
tp126
Rp127
s(I3
I16
tp128
g3
(g7
S'\xd9\xbd5aG\x87\x12?'
p129
tp130
Rp131
sg47
S'MLSDC'
p132
s(I7
I32
tp133
g3
(g7
S'\x94\xa5\x9b\x0bz\x12\x98='
p134
tp135
Rp136
s(I3
I64
tp137
g3
(g7
S'\x9do\xf9p2\\\xb4>'
p138
tp139
Rp140
s(I6
I128
tp141
g3
(g7
S'\x0eF\x13i\x0b\xbc\xd5<'
p142
tp143
Rp144
s(I4
I16
tp145
g3
(g7
S'/O0\xda\xad\xd3\xb3>'
p146
tp147
Rp148
s(I4
I64
tp149
g3
(g7
S'3r\xf1\xe6\x9a\xd14>'
p150
tp151
Rp152
sg69
g70
s(I7
I128
tp153
g3
(g7
S'\x0eF\x13i\x0b\xbc\xd5<'
p154
tp155
Rp156
s(I5
I16
tp157
g3
(g7
S'H\xf77\xfd.\xe4O>'
p158
tp159
Rp160
s(I3
I32
tp161
g3
(g7
S'\xaeA%_\x8a\xb7\xe3>'
p162
tp163
Rp164
s(I5
I64
tp165
g3
(g7
S'\x9cv\xc0\xa2\xa5\xab\xb2='
p166
tp167
Rp168
s(I6
I16
tp169
g3
(g7
S'\x96j-|\x80 \xfb='
p170
tp171
Rp172
s(I4
I32
tp173
g3
(g7
S'\xec\xa9\xd9\x93\xbd\xd7t>'
p174
tp175
Rp176
sa.