(lp0
(dp1
(I2
I16384
tp2
cnumpy.core.multiarray
scalar
p3
(cnumpy
dtype
p4
(S'f8'
p5
I0
I1
tp6
Rp7
(I3
S'<'
p8
NNNI-1
I-1
I0
tp9
bS'\x8f\xa7\xc34\x84\xe2#>'
p10
tp11
Rp12
s(I3
I65536
tp13
g3
(g7
S'@\x9b\x1e\xcd\x1f\xe8\x14='
p14
tp15
Rp16
s(I4
I16384
tp17
g3
(g7
S'C\x91\x159N4$='
p18
tp19
Rp20
s(I4
I32768
tp21
g3
(g7
S'2\xcd\xaa\xeal\xbc\x1e='
p22
tp23
Rp24
s(I1
I65536
tp25
g3
(g7
S'\xf7\x91\x82\x0e9+\xb3>'
p26
tp27
Rp28
s(I4
I131072
tp29
g3
(g7
S'@T8G\x02\x0f"='
p30
tp31
Rp32
s(I2
I32768
tp33
g3
(g7
S'\xe8\xca?9\xbc\xe6\xf3='
p34
tp35
Rp36
s(I3
I16384
tp37
g3
(g7
S'>\xc2N\xe8\xa9 T='
p38
tp39
Rp40
s(I3
I131072
tp41
g3
(g7
S'\xfe\xd2\x18\xfd\x01\x0f"='
p42
tp43
Rp44
sS'niter_arr'
p45
(lp46
I1
aI2
aI3
aI4
aI5
as(I5
I65536
tp47
g3
(g7
S'\xaa\xac\xb1P\x1f\x00\x15='
p48
tp49
Rp50
s(I4
I65536
tp51
g3
(g7
S'j\x94\x9d|.\x00\x15='
p52
tp53
Rp54
sS'type'
p55
S'SDC'
p56
s(I5
I32768
tp57
g3
(g7
S'M`\n%j|\x1e='
p58
tp59
Rp60
s(I1
I16384
tp61
g3
(g7
S"\x0er\xc1\x81\x0e'\xf3>"
p62
tp63
Rp64
s(I5
I16384
tp65
g3
(g7
S'"4\xf5O\x1d\xb3#='
p66
tp67
Rp68
s(I1
I32768
tp69
g3
(g7
S'ND"m\xd5)\xd3>'
p70
tp71
Rp72
s(I1
I131072
tp73
g3
(g7
S'\x94%\x84\xf0\xea+\x93>'
p74
tp75
Rp76
sS'nsteps_arr'
p77
(lp78
I16384
aI32768
aI65536
aI131072
as(I5
I131072
tp79
g3
(g7
S'@T8G\x02\x0f"='
p80
tp81
Rp82
s(I2
I65536
tp83
g3
(g7
S'/\x98\xcf\x06\xcf\xe8\xc3='
p84
tp85
Rp86
s(I2
I131072
tp87
g3
(g7
S'Z\xecw-t\xf0\x93='
p88
tp89
Rp90
s(I3
I32768
tp91
g3
(g7
S'\x0f#b\xc49\x8e(='
p92
tp93
Rp94
sa(dp95
(I2
I16384
tp96
g3
(g7
S'\xaf\xa3\xf9\xe6jfJ?'
p97
tp98
Rp99
s(I3
I65536
tp100
g3
(g7
S'\r\x0f__\x83*\xb8>'
p101
tp102
Rp103
s(I4
I16384
tp104
g3
(g7
S'\xce\x012\x13\xbc\x10\xe2>'
p105
tp106
Rp107
s(I4
I32768
tp108
g3
(g7
S'\x039l\x88\x89\x88\xaf>'
p109
tp110
Rp111
s(I1
I65536
tp112
g3
(g7
S'\x1c/*\xf6$\x8ai?'
p113
tp114
Rp115
s(I4
I131072
tp116
g3
(g7
S'\xd4f\x18\x92\xf07)>'
p117
tp118
Rp119
s(I2
I32768
tp120
g3
(g7
S'%\x0e\xfd\xb3\x87\xe7*?'
p121
tp122
Rp123
s(I3
I16384
tp124
g3
(g7
S'\xd6\xbe\x9eezm\x16?'
p125
tp126
Rp127
s(I3
I131072
tp128
g3
(g7
S'\tR$n\xd9w\x80>'
p129
tp130
Rp131
sg45
g46
s(I5
I65536
tp132
g3
(g7
S"8D2\xca\xc4\x94'>"
p133
tp134
Rp135
s(I4
I65536
tp136
g3
(g7
S'D$#\xb9Qxo>'
p137
tp138
Rp139
sg55
S'MLSDC'
p140
s(I5
I32768
tp141
g3
(g7
S'j\xc9\xf9\xb8\xdd\x8dr>'
p142
tp143
Rp144
s(I1
I16384
tp145
g3
(g7
S'\x08\xf8.NN\x9a\xa1?'
p146
tp147
Rp148
s(I5
I16384
tp149
g3
(g7
S'\xd0\x1d\x8d\x19N\xc1\xb2>'
p150
tp151
Rp152
s(I1
I32768
tp153
g3
(g7
S'Wqc\x93\xe3j\x86?'
p154
tp155
Rp156
s(I1
I131072
tp157
g3
(g7
S'\x00\x1c\xd2\x17\x15HK?'
p158
tp159
Rp160
sg77
g78
s(I5
I131072
tp161
g3
(g7
S'l\xa7t\xc1\xc5\x9d\xd2='
p162
tp163
Rp164
s(I2
I65536
tp165
g3
(g7
S'\x98\x8c\xc1\x18\xa0\x13\x04?'
p166
tp167
Rp168
s(I2
I131072
tp169
g3
(g7
S'\x96a76\x86\xdc\xd8>'
p170
tp171
Rp172
s(I3
I32768
tp173
g3
(g7
S'}$\x93P\xa15\xea>'
p174
tp175
Rp176
sa.