(lp0
(dp1
(I3
I128
tp2
cnumpy.core.multiarray
scalar
p3
(cnumpy
dtype
p4
(S'f8'
p5
I0
I1
tp6
Rp7
(I3
S'<'
p8
NNNI-1
I-1
I0
tp9
bS'\xd0D\xc2\xa2\xdaJ\x01>'
p10
tp11
Rp12
s(I5
I32
tp13
g3
(g7
S'8\xea\xaa\x9aXkU='
p14
tp15
Rp16
s(I1
I64
tp17
g3
(g7
S'\x93\xe2z\x04\x88\xc3"?'
p18
tp19
Rp20
s(I4
I128
tp21
g3
(g7
S'\x12tp\x9a\xb2wb='
p22
tp23
Rp24
s(I1
I16
tp25
g3
(g7
S'8\xb2\xd6\xe5E\xafA?'
p26
tp27
Rp28
s(I2
I64
tp29
g3
(g7
S'D\xbe2\x9f\xd1\x92\xbc>'
p30
tp31
Rp32
sS'niter_arr'
p33
(lp34
I1
aI2
aI3
aI4
aI5
as(I5
I128
tp35
g3
(g7
S'\x12tp\x9a\xb2wb='
p36
tp37
Rp38
s(I3
I16
tp39
g3
(g7
S'\x0c)0\x92\xc4\x15\x81>'
p40
tp41
Rp42
s(I1
I32
tp43
g3
(g7
S'\xfdy\xce\x10XC2?'
p44
tp45
Rp46
sS'type'
p47
S'SDC'
p48
s(I2
I16
tp49
g3
(g7
S']\x91FJ\x82\xc8\xfc>'
p50
tp51
Rp52
s(I3
I64
tp53
g3
(g7
S'\x8b\xdab\x86\xd4\x0c0>'
p54
tp55
Rp56
s(I4
I16
tp57
g3
(g7
S'3\xb2\xcc\xc8\x92)\x13>'
p58
tp59
Rp60
s(I2
I32
tp61
g3
(g7
S')\x06\x0fl\xfd\xa0\xdc>'
p62
tp63
Rp64
s(I1
I128
tp65
g3
(g7
S'\xb8\xa2\xa2\x8f\x9b\x12\x13?'
p66
tp67
Rp68
s(I4
I64
tp69
g3
(g7
S"+P\xd0'y5\xa1="
p70
tp71
Rp72
sS'nsteps_arr'
p73
(lp74
I16
aI32
aI64
aI128
as(I5
I16
tp75
g3
(g7
S'6\x02\xec\xa8\r9\x92='
p76
tp77
Rp78
s(I3
I32
tp79
g3
(g7
S'\xd7L\x0cQ\n\x1e[>'
p80
tp81
Rp82
s(I2
I128
tp83
g3
(g7
S'6\x17\t\xfe4\x8d\x9c>'
p84
tp85
Rp86
s(I5
I64
tp87
g3
(g7
S'\xf8\x84e3-o&='
p88
tp89
Rp90
s(I4
I32
tp91
g3
(g7
S'\x19\xbe\xeanBW\xdd='
p92
tp93
Rp94
sa(dp95
(I3
I128
tp96
g3
(g7
S'`\xaf\n]\\\xa9\xc0='
p97
tp98
Rp99
s(I5
I32
tp100
g3
(g7
S'\xc7\x81\xb4\x1ff{3='
p101
tp102
Rp103
s(I1
I64
tp104
g3
(g7
S'b\xcd*\x0b\x1b\x05.?'
p105
tp106
Rp107
s(I4
I128
tp108
g3
(g7
S'\x07\xf9n\x80\x8fA4='
p109
tp110
Rp111
s(I1
I16
tp112
g3
(g7
S'+\xe4\x86\xc1\x98pN?'
p113
tp114
Rp115
s(I2
I64
tp116
g3
(g7
S'$\xfc.\x84\xc0\xcf\x87>'
p117
tp118
Rp119
sg33
g34
s(I5
I128
tp120
g3
(g7
S'\x07\xf9n\x80\x8fA4='
p121
tp122
Rp123
s(I3
I16
tp124
g3
(g7
S'\x8f\xc8\xd7k\xf6\tC>'
p125
tp126
Rp127
s(I1
I32
tp128
g3
(g7
S'\xa4\xbb\x94[-.>?'
p129
tp130
Rp131
sg47
S'MLSDC'
p132
s(I2
I16
tp133
g3
(g7
S'u\\V\xe6P\x06\xc5>'
p134
tp135
Rp136
s(I3
I64
tp137
g3
(g7
S's*\xca,\x90@\xef='
p138
tp139
Rp140
s(I4
I16
tp141
g3
(g7
S'Mg;=\xaf\xfc\xb2='
p142
tp143
Rp144
s(I2
I32
tp145
g3
(g7
S'0r\xf8\x19L\xef\xa6>'
p146
tp147
Rp148
s(I1
I128
tp149
g3
(g7
S'\xaf\x18nv\x82\xed\x1d?'
p150
tp151
Rp152
s(I4
I64
tp153
g3
(g7
S'\x86\x1a#+e\xeds='
p154
tp155
Rp156
sg73
g74
s(I5
I16
tp157
g3
(g7
S'?L\x1e\xc1\n\x12;='
p158
tp159
Rp160
s(I3
I32
tp161
g3
(g7
S'\x9b\xacHO\x9a\x1c\x1b>'
p162
tp163
Rp164
s(I2
I128
tp165
g3
(g7
S'\xb3\xdf\x00\x968<h>'
p166
tp167
Rp168
s(I5
I64
tp169
g3
(g7
S'*\xfd\x81q\x02\xac-='
p170
tp171
Rp172
s(I4
I32
tp173
g3
(g7
S'%\x89\rvo\x8b\x88='
p174
tp175
Rp176
sa.